(dp1
S'heroStartSpeedX'
p2
F0
sS'heroStartSpeedY'
p3
F50
sS'kLevelFlagDoNotStartBackgroundMusic'
p4
I00
sS'joystickAccelerationFactor'
p5
F0
sS'heroStartAccelerationX'
p6
F0
sS'accelerationMaxX'
p7
F100
sS'audioSideRightSound'
p8
S'borderHit.caf'
p9
sS'paddles'
p10
(lp11
(dp12
S'maxX'
p13
F0
sS'maxY'
p14
F0
sS'audioClickSound'
p15
S''
sS'labelText'
p16
S''
sS'aiDefensiveKind'
p17
S''
sS'colorColor1'
p18
S'255,255,255'
p19
sS'energy'
p20
F0
sS'elasticity'
p21
F0
sS'aiDefensiveConfig'
p22
S''
sS'height'
p23
F29
sS'kPaddleFlagEnabled'
p24
I01
sS'proximityAccelerationX'
p25
F0
sS'kPaddleFlagScriptHandleTouches'
p26
I00
sS'kPaddleFlagScriptOnExit'
p27
I00
sS'labelColor'
p28
S'0,0,0'
p29
sS'kPaddleFlagScriptOnSideToggled'
p30
I00
sS'proximityAccelerationY'
p31
F0
sS'colorColor2'
p32
S'0,0,0'
p33
sS'minX'
p34
F0
sS'minY'
p35
F0
sS'aiOffensiveConfig'
p36
S''
sS'kPaddleFlagScriptOnEnter'
p37
I00
sS'aiOffensiveKind'
p38
S''
sS'kPaddleFlagBlockTouches'
p39
I00
sS'audioInSound'
p40
S''
sS'colorOpacity'
p41
I255
sS'labelOpacity'
p42
I255
sS'positionX'
p43
F1339
sS'positionY'
p44
F295
sS'audioMoveSound'
p45
S'paddleMove.caf'
p46
sS'kPaddleFlagScriptOnHeroInProxymityArea'
p47
I00
sS'proximityWidth'
p48
F0
sS'colorTintToDuration'
p49
F0
sS'audioSoundLoop'
p50
S''
sS'labelFont'
p51
S'orangekid'
p52
sS'labelFontSize'
p53
I16
sS'audioOutSound'
p54
S''
sS'kPaddleFlagIsInvisible'
p55
I00
sS'speedX'
p56
F0
sS'scripts'
p57
S''
sS'proximityMode'
p58
I0
sS'lights'
p59
(lp60
sS'name'
p61
S''
sS'kPaddleFlagSelected'
p62
I00
sS'kind'
p63
I1
sS'proximityHeight'
p64
F0
sS'kPaddleFlagIsButton'
p65
I00
sS'kPaddleFlagScriptUpdate'
p66
I00
sS'colorMode'
p67
I0
sS'textureName'
p68
S''
sS'kPaddleFlagScriptApplyProximityInfluenceToHero'
p69
I00
sS'kPaddleFlagCollisionDisabled'
p70
I00
sS'audioHitSound'
p71
S'paddleHit.caf'
p72
sS'extensions'
p73
S''
sS'kPaddleFlagOffensiveSide'
p74
I00
sS'speedY'
p75
F0
sS'z'
F0
sS'width'
p76
F340
sa(dp77
g13
F0
sg14
F0
sg15
S''
sg16
S''
sg17
S''
sg18
S'255,255,255'
p78
sg20
F0
sg21
F0
sg22
S''
sg23
F29
sg24
I01
sg25
F0
sg26
I00
sg27
I00
sg28
S'0,0,0'
p79
sg30
I00
sg31
F0
sg32
S'0,0,0'
p80
sg34
F0
sg35
F0
sg36
S''
sg37
I00
sg38
S''
sg39
I00
sg40
S''
sg41
I255
sg42
I255
sg43
F1876
sg44
F295
sg45
g46
sg47
I00
sg48
F0
sg49
F0
sg50
S''
sg51
S'orangekid'
p81
sg53
I16
sg54
S''
sg55
I00
sg56
F0
sg57
S''
sg58
I0
sg59
(lp82
sg61
S''
sg62
I00
sg63
I1
sg64
F0
sg65
I00
sg66
I00
sg67
I0
sS'textureName'
p83
S''
sg69
I00
sg70
I00
sg71
g72
sg73
S''
sg74
I00
sg75
F0
sS'z'
F0
sg76
F276
sa(dp84
g13
F0
sg14
F0
sg15
S''
sg16
S''
sg17
S''
sg18
S'255,255,255'
p85
sg20
F0
sg21
F0
sg22
S''
sg23
F20
sg24
I01
sg25
F0
sg26
I00
sg27
I00
sg28
S'0,0,0'
p86
sg30
I00
sg31
F0
sg32
S'0,0,0'
p87
sg34
F0
sg35
F0
sg36
S''
sg37
I00
sg38
S''
sg39
I00
sg40
S''
sg41
I255
sg42
I255
sg43
F0
sg44
F1233
sg45
g46
sg47
I00
sg48
F0
sg49
F0
sg50
S''
sg51
S'orangekid'
p88
sg53
I16
sg54
S''
sg55
I00
sg56
F0
sg57
S''
sg58
I0
sg59
(lp89
sg61
S''
sg62
I00
sg63
I1
sg64
F0
sg65
I00
sg66
I00
sg67
I0
sg69
I00
sg70
I00
sg71
g72
sg73
S''
sg74
I00
sg75
F0
sS'z'
F0
sg76
F120
sa(dp90
g13
F0
sg14
F0
sg15
S''
sg16
S''
sg17
S''
sg18
S'255,255,255'
p91
sg20
F0
sg21
F0
sg22
S''
sg23
F20
sg24
I01
sg25
F0
sg26
I00
sg27
I00
sg28
S'0,0,0'
p92
sg30
I00
sg31
F0
sg32
S'0,0,0'
p93
sg34
F0
sg35
F0
sg36
S''
sg37
I00
sg38
S''
sg39
I00
sg40
S''
sg41
I255
sg42
I255
sg43
F143
sg44
F1233
sg45
g46
sg47
I00
sg48
F0
sg49
F0
sg50
S''
sg51
S'orangekid'
p94
sg53
I16
sg54
S''
sg55
I00
sg56
F0
sg57
S''
sg58
I0
sg59
(lp95
sg61
S''
sg62
I00
sg63
I1
sg64
F0
sg65
I00
sg66
I00
sg67
I0
sg69
I00
sg70
I00
sg71
g72
sg73
S''
sg74
I00
sg75
F0
sS'z'
F0
sg76
F340
sa(dp96
g13
F0
sg14
F0
sg15
S''
sg16
S''
sg17
S''
sg18
S'255,255,255'
p97
sg20
F0
sg21
F0
sg22
S''
sg23
F200
sg24
I01
sS'audioMoveSoundTimeout'
p98
F0
sS'topImagePositionX'
p99
F0
sS'topImagePositionY'
p100
F0
sg26
I00
sg27
I00
sS'topImageAnchorX'
p101
F0
sS'topImageAnchorY'
p102
F0
sg30
I00
sS'topImageName'
p103
S''
sg31
F0
sg32
S'0,0,0'
p104
sg34
F0
sg28
S'0,0,0'
p105
sg36
S''
sg37
I00
sS'topImageOpacity'
p106
I0
sS'kPaddleFlagNoPositionLimit'
p107
I00
sg39
I00
sg40
S''
sg41
I255
sg42
I255
sg43
F0
sg44
F1252
sg45
S'paddleMove.caf'
p108
sg25
F0
sS'topImageHeight'
p109
I0
sg47
I00
sg48
F0
sg49
F0
sg50
S''
sg51
S'orangekid'
p110
sS'topImageRotation'
p111
F0
sg53
I16
sg54
S''
sg75
F0
sg56
F0
sg57
S''
sg58
I0
sg38
S''
sg59
(lp112
sg61
S''
sg62
I00
sg35
F0
sg63
I1
sS'z'
F0
sg64
F0
sg65
I00
sg66
I00
sg67
I0
sS'textureName'
p113
S''
sg69
I00
sg70
I00
sg71
S'paddleHit.caf'
p114
sg73
S''
sg74
I00
sg55
I00
sS'topImageWidth'
p115
I0
sg76
F103
sa(dp116
g13
F0
sg14
F0
sg15
S''
sg75
F0
sg16
S''
sg17
S''
sg30
I00
sg20
F0
sg21
F0
sg22
S''
sg23
F40
sg24
I01
sS'audioMoveSoundTimeout'
p117
F0
sS'topImagePositionX'
p118
F0
sS'topImagePositionY'
p119
F0
sg26
I00
sg27
I00
sS'topImageAnchorX'
p120
F0
sS'topImageAnchorY'
p121
F0
sg18
S'255,255,255'
p122
sS'topImageName'
p123
S''
sg31
F0
sg32
S'0,0,0'
p124
sg34
F0
sg28
S'0,0,0'
p125
sg36
S''
sg37
I00
sS'topImageOpacity'
p126
I0
sS'kPaddleFlagNoPositionLimit'
p127
I00
sg39
I00
sg40
S''
sg41
I255
sg42
I255
sg43
F74
sg44
F110
sg45
S'paddleMove.caf'
p128
sg25
F0
sS'topImageHeight'
p129
I0
sg47
I00
sg48
F0
sg49
F0
sg50
S''
sg51
S'orangekid'
p130
sS'topImageRotation'
p131
F0
sg53
I16
sg54
S''
sg55
I00
sg56
F0
sg57
S''
sg58
I0
sg38
S''
sg59
(lp132
sg64
F0
sg62
I00
sg35
F0
sg63
I1
sg61
S''
sg65
I00
sg66
I00
sS'scorePerHit'
p133
I0
sS'textureName'
p134
S''
sg69
I00
sg70
I00
sg71
S'paddleHit.caf'
p135
sg73
S''
sg67
I0
sS'topImageWidth'
p136
I0
sS'z'
F0
sg76
F40
sg74
I00
sa(dp137
g13
F0
sg14
F0
sg15
S''
sg16
S''
sg17
S''
sg18
S'255,255,255'
p138
sg20
F0
sg21
F0
sg22
S''
sg23
F40
sg24
I01
sg25
F0
sg26
I00
sg27
I00
sg28
S'0,0,0'
p139
sg30
I00
sg31
F0
sg32
S'0,0,0'
p140
sg34
F0
sg35
F0
sg36
S''
sg37
I00
sg38
S''
sg39
I00
sg40
S''
sg41
I255
sg42
I255
sg43
I152
sg44
I110
sg45
g46
sg47
I00
sg48
F0
sg49
F0
sg50
S''
sg51
S'orangekid'
p141
sg53
I16
sg54
S''
sg55
I00
sg56
F0
sg57
S''
sg58
I0
sg59
(lp142
sg61
S''
sg62
I00
sg63
I1
sg64
F0
sg65
I00
sg66
I00
sg67
I0
sg69
I00
sg70
I00
sg71
g72
sg73
S''
sg74
I00
sg75
F0
sS'z'
F0
sg76
F40
sa(dp143
g13
F0
sg14
F0
sg15
S''
sg16
S''
sg17
S''
sg18
S'255,255,255'
p144
sg20
F0
sg21
F0
sg22
S''
sg23
F40
sg24
I01
sg25
F0
sg26
I00
sg27
I00
sg28
S'0,0,0'
p145
sg30
I00
sg31
F0
sg32
S'0,0,0'
p146
sg34
F0
sg35
F0
sg36
S''
sg37
I00
sg38
S''
sg39
I00
sg40
S''
sg41
I255
sg42
I255
sg43
I232
sg44
I110
sg45
g46
sg47
I00
sg48
F0
sg49
F0
sg50
S''
sg51
S'orangekid'
p147
sg53
I16
sg54
S''
sg55
I00
sg56
F0
sg57
S''
sg58
I0
sg59
(lp148
sg61
S''
sg62
I00
sg63
I1
sg64
F0
sg65
I00
sg66
I00
sg67
I0
sg69
I00
sg70
I00
sg71
g72
sg73
S''
sg74
I00
sg75
F0
sS'z'
F0
sg76
F40
sa(dp149
g13
F0
sg14
F0
sg15
S''
sg16
S''
sg17
S''
sg18
S'255,255,255'
p150
sg20
F0
sg21
F0
sg22
S''
sg23
F40
sg24
I01
sg25
F0
sg26
I00
sg27
I00
sg28
S'0,0,0'
p151
sg30
I00
sg31
F0
sg32
S'0,0,0'
p152
sg34
F0
sg35
F0
sg36
S''
sg37
I00
sg38
S''
sg39
I00
sg40
S''
sg41
I255
sg42
I255
sg43
F312
sg44
F110
sg45
g46
sg47
I00
sg48
F0
sg49
F0
sg50
S''
sg51
S'orangekid'
p153
sg53
I16
sg54
S''
sg55
I00
sg56
F0
sg57
S''
sg58
I0
sg59
(lp154
sg61
S''
sg62
I00
sg63
I1
sg64
F0
sg65
I00
sg66
I00
sg67
I0
sg69
I00
sg70
I00
sg71
g72
sg73
S''
sg74
I00
sg75
F0
sS'z'
F0
sg76
F40
sa(dp155
g13
F0
sg14
F0
sg15
S''
sg16
S''
sg17
S''
sg18
S'255,255,255'
p156
sg20
F0
sg21
F0
sg22
S''
sg23
F40
sg24
I01
sg25
F0
sg26
I00
sg27
I00
sg28
S'0,0,0'
p157
sg30
I00
sg31
F0
sg32
S'0,0,0'
p158
sg34
F0
sg35
F0
sg36
S''
sg37
I00
sg38
S''
sg39
I00
sg40
S''
sg41
I255
sg42
I255
sg43
F392
sg44
F110
sg45
g46
sg47
I00
sg48
F0
sg49
F0
sg50
S''
sg51
S'orangekid'
p159
sg53
I16
sg54
S''
sg55
I00
sg56
F0
sg57
S''
sg58
I0
sg59
(lp160
sg61
S''
sg62
I00
sg63
I1
sg64
F0
sg65
I00
sg66
I00
sg67
I0
sg69
I00
sg70
I00
sg71
g72
sg73
S''
sg74
I00
sg75
F0
sS'z'
F0
sg76
F40
sa(dp161
g13
F0
sg14
F0
sg15
S''
sg16
S''
sg17
S''
sg18
S'255,255,255'
p162
sg20
F0
sg21
F0
sg22
S''
sg23
F40
sg24
I01
sg25
F0
sg26
I00
sg27
I00
sg28
S'0,0,0'
p163
sg30
I00
sg31
F0
sg32
S'0,0,0'
p164
sg34
F0
sg35
F0
sg36
S''
sg37
I00
sg38
S''
sg39
I00
sg40
S''
sg41
I255
sg42
I255
sg43
I473
sg44
I110
sg45
g46
sg47
I00
sg48
F0
sg49
F0
sg50
S''
sg51
S'orangekid'
p165
sg53
I16
sg54
S''
sg55
I00
sg56
F0
sg57
S''
sg58
I0
sg59
(lp166
sg61
S''
sg62
I00
sg63
I1
sg64
F0
sg65
I00
sg66
I00
sg67
I0
sg69
I00
sg70
I00
sg71
g72
sg73
S''
sg74
I00
sg75
F0
sS'z'
F0
sg76
F40
sa(dp167
g13
F0
sg14
F0
sg15
S''
sg16
S''
sg17
S''
sg30
I00
sg20
F0
sg21
F0
sg22
S''
sg23
F40
sg24
I01
sS'audioMoveSoundTimeout'
p168
F0
sS'topImagePositionX'
p169
F0
sS'topImagePositionY'
p170
F0
sg26
I00
sg27
I00
sS'topImageWidth'
p171
I0
sS'topImageAnchorX'
p172
F0
sS'topImageAnchorY'
p173
F0
sg18
S'255,255,255'
p174
sS'topImageName'
p175
S''
sg31
F0
sg32
S'0,0,0'
p176
sg34
F0
sg28
S'0,0,0'
p177
sg36
S''
sg37
I00
sS'topImageOpacity'
p178
I0
sS'kPaddleFlagNoPositionLimit'
p179
I00
sg39
I00
sg40
S''
sg41
I255
sg42
I255
sg43
F-5
sg44
F109
sg45
S'paddleMove.caf'
p180
sg25
F0
sS'topImageHeight'
p181
I0
sg47
I00
sg48
F0
sg49
F0
sg50
S''
sg51
S'orangekid'
p182
sS'topImageRotation'
p183
F0
sg53
I16
sg54
S''
sg75
F0
sg56
F0
sg57
S''
sg58
I0
sg38
S''
sg59
(lp184
sg64
F0
sg62
I00
sg35
F0
sg63
I1
sg61
S''
sg65
I00
sg66
I00
sg67
I0
sS'textureName'
p185
S''
sg69
I00
sg70
I00
sg71
S'paddleHit.caf'
p186
sg73
S''
sg74
I00
sg55
I00
sS'z'
F0
sg76
F40
sa(dp187
g13
F0
sg14
F0
sg15
S''
sg16
S''
sg17
S''
sg18
S'255,255,255'
p188
sg20
F0
sg21
F0
sg22
S''
sg23
F40
sg24
I01
sg25
F0
sg26
I00
sg27
I00
sg28
S'0,0,0'
p189
sg30
I00
sg31
F0
sg32
S'0,0,0'
p190
sg34
F0
sg35
F0
sg36
S''
sg37
I00
sg38
S''
sg39
I00
sg40
S''
sg41
I255
sg42
I255
sg43
F34
sg44
F190
sg45
g46
sg47
I00
sg48
F0
sg49
F0
sg50
S''
sg51
S'orangekid'
p191
sg53
I16
sg54
S''
sg55
I00
sg56
F0
sg57
S''
sg58
I0
sg59
(lp192
sg61
S''
sg62
I00
sg63
I1
sg64
F0
sg65
I00
sg66
I00
sg67
I0
sg69
I00
sg70
I00
sg71
g72
sg73
S''
sg74
I00
sg75
F0
sS'z'
F0
sg76
F40
sa(dp193
g13
F0
sg14
F0
sg15
S''
sg16
S''
sg17
S''
sg18
S'255,255,255'
p194
sg20
F0
sg21
F0
sg22
S''
sg23
F40
sg24
I01
sg25
F0
sg26
I00
sg27
I00
sg28
S'0,0,0'
p195
sg30
I00
sg31
F0
sg32
S'0,0,0'
p196
sg34
F0
sg35
F0
sg36
S''
sg37
I00
sg38
S''
sg39
I00
sg40
S''
sg41
I255
sg42
I255
sg43
I114
sg44
I190
sg45
g46
sg47
I00
sg48
F0
sg49
F0
sg50
S''
sg51
S'orangekid'
p197
sg53
I16
sg54
S''
sg55
I00
sg56
F0
sg57
S''
sg58
I0
sg59
(lp198
sg61
S''
sg62
I00
sg63
I1
sg64
F0
sg65
I00
sg66
I00
sg67
I0
sg69
I00
sg70
I00
sg71
g72
sg73
S''
sg74
I00
sg75
F0
sS'z'
F0
sg76
F40
sa(dp199
g13
F0
sg14
F0
sg15
S''
sg16
S''
sg17
S''
sg18
S'255,255,255'
p200
sg20
F0
sg21
F0
sg22
S''
sg23
F40
sg24
I01
sg25
F0
sg26
I00
sg27
I00
sg28
S'0,0,0'
p201
sg30
I00
sg31
F0
sg32
S'0,0,0'
p202
sg34
F0
sg35
F0
sg36
S''
sg37
I00
sg38
S''
sg39
I00
sg40
S''
sg41
I255
sg42
I255
sg43
I192
sg44
I190
sg45
g46
sg47
I00
sg48
F0
sg49
F0
sg50
S''
sg51
S'orangekid'
p203
sg53
I16
sg54
S''
sg55
I00
sg56
F0
sg57
S''
sg58
I0
sg59
(lp204
sg61
S''
sg62
I00
sg63
I1
sg64
F0
sg65
I00
sg66
I00
sg67
I0
sg69
I00
sg70
I00
sg71
g72
sg73
S''
sg74
I00
sg75
F0
sS'z'
F0
sg76
F40
sa(dp205
g13
F0
sg14
F0
sg15
S''
sg16
S''
sg17
S''
sg18
S'255,255,255'
p206
sg20
F0
sg21
F0
sg22
S''
sg23
F40
sg24
I01
sg25
F0
sg26
I00
sg27
I00
sg28
S'0,0,0'
p207
sg30
I00
sg31
F0
sg32
S'0,0,0'
p208
sg34
F0
sg35
F0
sg36
S''
sg37
I00
sg38
S''
sg39
I00
sg40
S''
sg41
I255
sg42
I255
sg43
I272
sg44
I190
sg45
g46
sg47
I00
sg48
F0
sg49
F0
sg50
S''
sg51
S'orangekid'
p209
sg53
I16
sg54
S''
sg55
I00
sg56
F0
sg57
S''
sg58
I0
sg59
(lp210
sg61
S''
sg62
I00
sg63
I1
sg64
F0
sg65
I00
sg66
I00
sg67
I0
sg69
I00
sg70
I00
sg71
g72
sg73
S''
sg74
I00
sg75
F0
sS'z'
F0
sg76
F40
sa(dp211
g13
F0
sg14
F0
sg15
S''
sg16
S''
sg17
S''
sg18
S'255,255,255'
p212
sg20
F0
sg21
F0
sg22
S''
sg23
F40
sg24
I01
sg25
F0
sg26
I00
sg27
I00
sg28
S'0,0,0'
p213
sg30
I00
sg31
F0
sg32
S'0,0,0'
p214
sg34
F0
sg35
F0
sg36
S''
sg37
I00
sg38
S''
sg39
I00
sg40
S''
sg41
I255
sg42
I255
sg43
I352
sg44
I190
sg45
g46
sg47
I00
sg48
F0
sg49
F0
sg50
S''
sg51
S'orangekid'
p215
sg53
I16
sg54
S''
sg55
I00
sg56
F0
sg57
S''
sg58
I0
sg59
(lp216
sg61
S''
sg62
I00
sg63
I1
sg64
F0
sg65
I00
sg66
I00
sg67
I0
sg69
I00
sg70
I00
sg71
g72
sg73
S''
sg74
I00
sg75
F0
sS'z'
F0
sg76
F40
sa(dp217
g13
F0
sg14
F0
sg15
S''
sg16
S''
sg17
S''
sg18
S'255,255,255'
p218
sg20
F0
sg21
F0
sg22
S''
sg23
F40
sg24
I01
sg25
F0
sg26
I00
sg27
I00
sg28
S'0,0,0'
p219
sg30
I00
sg31
F0
sg32
S'0,0,0'
p220
sg34
F0
sg35
F0
sg36
S''
sg37
I00
sg38
S''
sg39
I00
sg40
S''
sg41
I255
sg42
I255
sg43
F435
sg44
F190
sg45
g46
sg47
I00
sg48
F0
sg49
F0
sg50
S''
sg51
S'orangekid'
p221
sg53
I16
sg54
S''
sg55
I00
sg56
F0
sg57
S''
sg58
I0
sg59
(lp222
sg61
S''
sg62
I00
sg63
I1
sg64
F0
sg65
I00
sg66
I00
sg67
I0
sg69
I00
sg70
I00
sg71
g72
sg73
S''
sg74
I00
sg75
F0
sS'z'
F0
sg76
F40
sa(dp223
g13
F0
sg14
F0
sg15
S''
sg16
S''
sg17
S''
sg18
S'255,255,255'
p224
sg20
F0
sg21
F0
sg22
S''
sg23
F40
sg24
I01
sg25
F0
sg26
I00
sg27
I00
sg28
S'0,0,0'
p225
sg30
I00
sg31
F0
sg32
S'0,0,0'
p226
sg34
F0
sg35
F0
sg36
S''
sg37
I00
sg38
S''
sg39
I00
sg40
S''
sg41
I255
sg42
I255
sg43
F456
sg44
F292
sg45
g46
sg47
I00
sg48
F0
sg49
F0
sg50
S''
sg51
S'orangekid'
p227
sg53
I16
sg54
S''
sg55
I00
sg56
F0
sg57
S''
sg58
I0
sg59
(lp228
sg61
S''
sg62
I00
sg63
I1
sg64
F0
sg65
I00
sg66
I00
sg67
I0
sS'textureName'
p229
S''
sg69
I00
sg70
I00
sg71
g72
sg73
S'"lights": [\n\n{\n    "lightID": -1,\n    "kind": kLightKindRect,\n    "enabled": True,\n    "flags": kLightFlagBlink,\n    "positionX": 0.5,\n    "positionY": 0.5,\n    "width": 9,\n    "height": 9,\n    "opacity": 0,\n    "power": 0.0,\n},\n\n],\n'
p230
sg74
I00
sg75
F0
sS'z'
F0
sg76
F40
sa(dp231
g13
F0
sg14
F0
sg15
S''
sg16
S''
sg17
S''
sg18
S'255,255,255'
p232
sg20
F0
sg21
F0
sg22
S''
sg23
F40
sg24
I01
sg25
F0
sg26
I00
sg27
I00
sg28
S'0,0,0'
p233
sg30
I00
sg31
F0
sg32
S'0,0,0'
p234
sg34
F0
sg35
F0
sg36
S''
sg37
I00
sg38
S''
sg39
I00
sg40
S''
sg41
I255
sg42
I255
sg43
I515
sg44
I190
sg45
g46
sg47
I00
sg48
F0
sg49
F0
sg50
S''
sg51
S'orangekid'
p235
sg53
I16
sg54
S''
sg55
I00
sg56
F0
sg57
S''
sg58
I0
sg59
(lp236
sg61
S''
sg62
I00
sg63
I1
sg64
F0
sg65
I00
sg66
I00
sg67
I0
sg69
I00
sg70
I00
sg71
g72
sg73
S''
sg74
I00
sg75
F0
sS'z'
F0
sg76
F40
sa(dp237
g13
F0
sg14
F0
sg15
S''
sg16
S''
sg17
S''
sg18
S'255,255,255'
p238
sg20
F0
sg21
F0
sg22
S''
sg23
F40
sg24
I01
sg25
F0
sg26
I00
sg27
I00
sg28
S'0,0,0'
p239
sg30
I00
sg31
F0
sg32
S'0,0,0'
p240
sg34
F0
sg35
F0
sg36
S''
sg37
I00
sg38
S''
sg39
I00
sg40
S''
sg41
I255
sg42
I255
sg43
I599
sg44
I190
sg45
g46
sg47
I00
sg48
F0
sg49
F0
sg50
S''
sg51
S'orangekid'
p241
sg53
I16
sg54
S''
sg55
I00
sg56
F0
sg57
S''
sg58
I0
sg59
(lp242
sg61
S''
sg62
I00
sg63
I1
sg64
F0
sg65
I00
sg66
I00
sg67
I0
sg69
I00
sg70
I00
sg71
g72
sg73
S''
sg74
I00
sg75
F0
sS'z'
F0
sg76
F40
sa(dp243
g13
F0
sg14
F0
sg15
S''
sg16
S''
sg17
S''
sg18
S'255,255,255'
p244
sg20
F0
sg21
F0
sg22
S''
sg23
F40
sg24
I01
sg25
F0
sg26
I00
sg27
I00
sg28
S'0,0,0'
p245
sg30
I00
sg31
F0
sg32
S'0,0,0'
p246
sg34
F0
sg35
F0
sg36
S''
sg37
I00
sg38
S''
sg39
I00
sg40
S''
sg41
I255
sg42
I255
sg43
I555
sg44
I110
sg45
g46
sg47
I00
sg48
F0
sg49
F0
sg50
S''
sg51
S'orangekid'
p247
sg53
I16
sg54
S''
sg55
I00
sg56
F0
sg57
S''
sg58
I0
sg59
(lp248
sg61
S''
sg62
I00
sg63
I1
sg64
F0
sg65
I00
sg66
I00
sg67
I0
sg69
I00
sg70
I00
sg71
g72
sg73
S''
sg74
I00
sg75
F0
sS'z'
F0
sg76
F40
sa(dp249
g13
F0
sg14
F0
sg15
S''
sg16
S''
sg17
S''
sg18
S'255,255,255'
p250
sg20
F0
sg21
F0
sg22
S''
sg23
F40
sg24
I01
sg25
F0
sg26
I00
sg27
I00
sg28
S'0,0,0'
p251
sg30
I00
sg31
F0
sg32
S'0,0,0'
p252
sg34
F0
sg35
F0
sg36
S''
sg37
I00
sg38
S''
sg39
I00
sg40
S''
sg41
I255
sg42
I255
sg43
I640
sg44
I110
sg45
g46
sg47
I00
sg48
F0
sg49
F0
sg50
S''
sg51
S'orangekid'
p253
sg53
I16
sg54
S''
sg55
I00
sg56
F0
sg57
S''
sg58
I0
sg59
(lp254
sg61
S''
sg62
I00
sg63
I1
sg64
F0
sg65
I00
sg66
I00
sg67
I0
sg69
I00
sg70
I00
sg71
g72
sg73
S''
sg74
I00
sg75
F0
sS'z'
F0
sg76
F40
sa(dp255
g13
F0
sg14
F0
sg15
S''
sg16
S''
sg17
S''
sg18
S'255,255,255'
p256
sg20
F0
sg21
F0
sg22
S''
sg23
F40
sg24
I01
sg25
F0
sg26
I00
sg27
I00
sg28
S'0,0,0'
p257
sg30
I00
sg31
F0
sg32
S'0,0,0'
p258
sg34
F0
sg35
F0
sg36
S''
sg37
I00
sg38
S''
sg39
I00
sg40
S''
sg41
I255
sg42
I255
sg43
I682
sg44
I190
sg45
g46
sg47
I00
sg48
F0
sg49
F0
sg50
S''
sg51
S'orangekid'
p259
sg53
I16
sg54
S''
sg55
I00
sg56
F0
sg57
S''
sg58
I0
sg59
(lp260
sg61
S''
sg62
I00
sg63
I1
sg64
F0
sg65
I00
sg66
I00
sg67
I0
sg69
I00
sg70
I00
sg71
g72
sg73
S''
sg74
I00
sg75
F0
sS'z'
F0
sg76
F40
sa(dp261
g13
F0
sg14
F0
sg15
S''
sg16
S''
sg17
S''
sg18
S'255,255,255'
p262
sg20
F0
sg21
F0
sg22
S''
sg23
F40
sg24
I01
sg25
F0
sg26
I00
sg27
I00
sg28
S'0,0,0'
p263
sg30
I00
sg31
F0
sg32
S'0,0,0'
p264
sg34
F0
sg35
F0
sg36
S''
sg37
I00
sg38
S''
sg39
I00
sg40
S''
sg41
I255
sg42
I255
sg43
I724
sg44
I110
sg45
g46
sg47
I00
sg48
F0
sg49
F0
sg50
S''
sg51
S'orangekid'
p265
sg53
I16
sg54
S''
sg55
I00
sg56
F0
sg57
S''
sg58
I0
sg59
(lp266
sg61
S''
sg62
I00
sg63
I1
sg64
F0
sg65
I00
sg66
I00
sg67
I0
sg69
I00
sg70
I00
sg71
g72
sg73
S''
sg74
I00
sg75
F0
sS'z'
F0
sg76
F40
sa(dp267
g13
F0
sg14
F0
sg15
S''
sg16
S''
sg17
S''
sg18
S'255,255,255'
p268
sg20
F0
sg21
F0
sg22
S''
sg23
F40
sg24
I01
sg25
F0
sg26
I00
sg27
I00
sg28
S'0,0,0'
p269
sg30
I00
sg31
F0
sg32
S'0,0,0'
p270
sg34
F0
sg35
F0
sg36
S''
sg37
I00
sg38
S''
sg39
I00
sg40
S''
sg41
I255
sg42
I255
sg43
I767
sg44
I190
sg45
g46
sg47
I00
sg48
F0
sg49
F0
sg50
S''
sg51
S'orangekid'
p271
sg53
I16
sg54
S''
sg55
I00
sg56
F0
sg57
S''
sg58
I0
sg59
(lp272
sg61
S''
sg62
I00
sg63
I1
sg64
F0
sg65
I00
sg66
I00
sg67
I0
sg69
I00
sg70
I00
sg71
g72
sg73
S''
sg74
I00
sg75
F0
sS'z'
F0
sg76
F40
sa(dp273
g13
F0
sg14
F0
sg15
S''
sg16
S''
sg17
S''
sg18
S'255,255,255'
p274
sg20
F0
sg21
F0
sg22
S''
sg23
F40
sg24
I01
sg25
F0
sg26
I00
sg27
I00
sg28
S'0,0,0'
p275
sg30
I00
sg31
F0
sg32
S'0,0,0'
p276
sg34
F0
sg35
F0
sg36
S''
sg37
I00
sg38
S''
sg39
I00
sg40
S''
sg41
I255
sg42
I255
sg43
I811
sg44
I110
sg45
g46
sg47
I00
sg48
F0
sg49
F0
sg50
S''
sg51
S'orangekid'
p277
sg53
I16
sg54
S''
sg55
I00
sg56
F0
sg57
S''
sg58
I0
sg59
(lp278
sg61
S''
sg62
I00
sg63
I1
sg64
F0
sg65
I00
sg66
I00
sg67
I0
sg69
I00
sg70
I00
sg71
g72
sg73
S''
sg74
I00
sg75
F0
sS'z'
F0
sg76
F40
sa(dp279
g13
F0
sg14
F0
sg15
S''
sg16
S''
sg17
S''
sg18
S'255,255,255'
p280
sg20
F0
sg21
F0
sg22
S''
sg23
F40
sg24
I01
sg25
F0
sg26
I00
sg27
I00
sg28
S'0,0,0'
p281
sg30
I00
sg31
F0
sg32
S'0,0,0'
p282
sg34
F0
sg35
F0
sg36
S''
sg37
I00
sg38
S''
sg39
I00
sg40
S''
sg41
I255
sg42
I255
sg43
I853
sg44
I190
sg45
g46
sg47
I00
sg48
F0
sg49
F0
sg50
S''
sg51
S'orangekid'
p283
sg53
I16
sg54
S''
sg55
I00
sg56
F0
sg57
S''
sg58
I0
sg59
(lp284
sg61
S''
sg62
I00
sg63
I1
sg64
F0
sg65
I00
sg66
I00
sg67
I0
sg69
I00
sg70
I00
sg71
g72
sg73
S''
sg74
I00
sg75
F0
sS'z'
F0
sg76
F40
sa(dp285
g13
F0
sg14
F0
sg15
S''
sg16
S''
sg17
S''
sg18
S'255,255,255'
p286
sg20
F0
sS'textureName'
p287
S''
sg21
F0
sg22
S''
sg23
F40
sg24
I01
sS'audioMoveSoundTimeout'
p288
F0
sS'topImagePositionX'
p289
F0
sS'topImagePositionY'
p290
F0
sg26
I00
sg27
I00
sS'topImageWidth'
p291
I0
sS'topImageAnchorX'
p292
F0
sS'topImageAnchorY'
p293
F0
sg30
I00
sS'topImageName'
p294
S''
sg31
F0
sg32
S'0,0,0'
p295
sg34
F0
sg28
S'0,0,0'
p296
sg36
S''
sg37
I00
sS'topImageOpacity'
p297
I0
sg39
I00
sg40
S''
sg41
I255
sg42
I255
sg43
F896
sg44
F110
sg45
S'paddleMove.caf'
p298
sg25
F0
sS'topImageHeight'
p299
I0
sg47
I00
sg48
F0
sg49
F0
sg50
S''
sg51
S'orangekid'
p300
sS'topImageRotation'
p301
F0
sg53
I16
sg54
S''
sg55
I00
sg56
F0
sg57
S''
sg58
I0
sg38
S''
sg59
(lp302
sg61
S''
sg62
I00
sg35
F0
sg63
I1
sg64
F0
sg65
I00
sg66
I00
sS'scorePerHit'
p303
I0
sS'kPaddleFlagNoPositionLimit'
p304
I00
sg69
I00
sg70
I00
sg71
S'paddleHit.caf'
p305
sg73
S''
sg67
I0
sg75
F0
sS'z'
F0
sg76
F40
sg74
I00
sa(dp306
g13
F0
sg14
F0
sg15
S''
sg16
S''
sg17
S''
sg18
S'255,255,255'
p307
sg20
F0
sg21
F0
sg22
S''
sg23
F40
sg24
I01
sg25
F0
sg26
I00
sg27
I00
sg28
S'0,0,0'
p308
sg30
I00
sg31
F0
sg32
S'0,0,0'
p309
sg34
F0
sg35
F0
sg36
S''
sg37
I00
sg38
S''
sg39
I00
sg40
S''
sg41
I255
sg42
I255
sg43
F456
sg44
F447
sg45
g46
sg47
I00
sg48
F0
sg49
F0
sg50
S''
sg51
S'orangekid'
p310
sg53
I16
sg54
S''
sg55
I00
sg56
F0
sg57
S''
sg58
I0
sg59
(lp311
sg61
S''
sg62
I00
sg63
I1
sg64
F0
sg65
I00
sg66
I00
sg67
I0
sg69
I00
sg70
I00
sg71
g72
sg73
S'"lights": [\n\n{\n    "lightID": -1,\n    "kind": kLightKindRect,\n    "enabled": True,\n    "flags": kLightFlagBlink,\n    "positionX": 0.5,\n    "positionY": 0.5,\n    "width": 9,\n    "height": 9,\n    "opacity": 0,\n    "power": 0.0,\n},\n\n],\n'
p312
sg74
I00
sg75
F0
sS'z'
F0
sg76
F40
sa(dp313
g13
F0
sg14
F0
sg15
S''
sg16
S''
sg17
S''
sg18
S'255,255,255'
p314
sg20
F0
sg21
F0
sg22
S''
sg23
F40
sg24
I01
sg25
F0
sg26
I00
sg27
I00
sg28
S'0,0,0'
p315
sg30
I00
sg31
F0
sg32
S'0,0,0'
p316
sg34
F0
sg35
F0
sg36
S''
sg37
I00
sg38
S''
sg39
I00
sg40
S''
sg41
I255
sg42
I255
sg43
F456
sg44
F597
sg45
g46
sg47
I00
sg48
F0
sg49
F0
sg50
S''
sg51
S'orangekid'
p317
sg53
I16
sg54
S''
sg55
I00
sg56
F0
sg57
S''
sg58
I0
sg59
(lp318
sg61
S''
sg62
I00
sg63
I1
sg64
F0
sg65
I00
sg66
I00
sg67
I0
sS'textureName'
p319
S''
sg69
I00
sg70
I00
sg71
g72
sg73
S'"lights": [\n\n{\n    "lightID": -1,\n    "kind": kLightKindRect,\n    "enabled": True,\n    "flags": kLightFlagBlink,\n    "positionX": 0.5,\n    "positionY": 0.5,\n    "width": 9,\n    "height": 9,\n    "opacity": 0,\n    "power": 0.0,\n},\n\n],\n'
p320
sg74
I00
sg75
F0
sS'z'
F0
sg76
F40
sa(dp321
g13
F0
sg14
F0
sg15
S''
sg16
S''
sg17
S''
sg18
S'255,255,255'
p322
sg20
F0
sg21
F0
sg22
S''
sg23
F40
sg24
I01
sg25
F0
sg26
I00
sg27
I00
sg28
S'0,0,0'
p323
sg30
I00
sg31
F0
sg32
S'0,0,0'
p324
sg34
F0
sg35
F0
sg36
S''
sg37
I00
sg38
S''
sg39
I00
sg40
S''
sg41
I255
sg42
I255
sg43
F921
sg44
F292
sg45
g46
sg47
I00
sg48
F0
sg49
F0
sg50
S''
sg51
S'orangekid'
p325
sg53
I16
sg54
S''
sg55
I00
sg56
F0
sg57
S''
sg58
I0
sg59
(lp326
sg61
S''
sg62
I00
sg63
I1
sg64
F0
sg65
I00
sg66
I00
sg67
I0
sg69
I00
sg70
I00
sg71
g72
sg73
S'"lights": [\n\n{\n    "lightID": -1,\n    "kind": kLightKindRect,\n    "enabled": True,\n    "flags": kLightFlagBlink,\n    "positionX": 0.5,\n    "positionY": 0.5,\n    "width": 9,\n    "height": 9,\n    "opacity": 0,\n    "power": 0.0,\n},\n\n],\n'
p327
sg74
I00
sg75
F0
sS'z'
F0
sg76
F40
sa(dp328
g13
F0
sg14
F0
sg15
S''
sg75
F0
sg16
S''
sg17
S''
sg30
I00
sg20
F0
sg21
F0
sg22
S''
sg23
F40
sg24
I01
sS'audioMoveSoundTimeout'
p329
F0
sS'topImagePositionX'
p330
F0
sS'topImagePositionY'
p331
F0
sg26
I00
sg27
I00
sS'topImageAnchorX'
p332
F0
sS'topImageAnchorY'
p333
F0
sg18
S'255,255,255'
p334
sS'topImageName'
p335
S''
sg31
F0
sg32
S'0,0,0'
p336
sg34
F0
sg28
S'0,0,0'
p337
sg36
S''
sg37
I00
sS'topImageOpacity'
p338
I0
sS'kPaddleFlagNoPositionLimit'
p339
I00
sg39
I00
sg40
S''
sg41
I255
sg42
I255
sg43
F-21
sg44
F292
sg45
S'paddleMove.caf'
p340
sg25
F0
sS'topImageHeight'
p341
I0
sg47
I00
sg48
F0
sg49
F0
sg50
S''
sg51
S'orangekid'
p342
sS'topImageRotation'
p343
F0
sg53
I16
sg54
S''
sg55
I00
sg56
F0
sg57
S''
sg58
I0
sg38
S''
sg59
(lp344
sg64
F0
sg62
I00
sg35
F0
sg63
I1
sg61
S''
sg65
I00
sg66
I00
sS'scorePerHit'
p345
I0
sS'textureName'
p346
S''
sg69
I00
sg70
I00
sg71
S'paddleHit.caf'
p347
sg73
S'"lights": [\n\n{\n    "lightID": -1,\n    "kind": kLightKindRect,\n    "enabled": True,\n    "flags": kLightFlagBlink,\n    "positionX": 0.5,\n    "positionY": 0.5,\n    "width": 9,\n    "height": 9,\n    "opacity": 0,\n    "power": 0.0,\n},\n\n],\n'
p348
sg67
I0
sS'topImageWidth'
p349
I0
sS'z'
F0
sg76
F40
sg74
I00
sa(dp350
g13
F0
sg14
F0
sg15
S''
sg16
S''
sg17
S''
sg18
S'255,255,255'
p351
sg20
F0
sg21
F0
sg22
S''
sg23
F40
sg24
I01
sg25
F0
sg26
I00
sg27
I00
sg28
S'0,0,0'
p352
sg30
I00
sg31
F0
sg32
S'0,0,0'
p353
sg34
F0
sg35
F0
sg36
S''
sg37
I00
sg38
S''
sg39
I00
sg40
S''
sg41
I255
sg42
I255
sg43
F-21
sg44
F597
sg45
g46
sg47
I00
sg48
F0
sg49
F0
sg50
S''
sg51
S'orangekid'
p354
sg53
I16
sg54
S''
sg55
I00
sg56
F0
sg57
S''
sg58
I0
sg59
(lp355
sg61
S''
sg62
I00
sg63
I1
sg64
F0
sg65
I00
sg66
I00
sg67
I0
sg69
I00
sg70
I00
sg71
g72
sg73
S'"lights": [\n\n{\n    "lightID": -1,\n    "kind": kLightKindRect,\n    "enabled": True,\n    "flags": kLightFlagBlink,\n    "positionX": 0.5,\n    "positionY": 0.5,\n    "width": 9,\n    "height": 9,\n    "opacity": 0,\n    "power": 0.0,\n},\n\n],\n'
p356
sg74
I00
sg75
F0
sS'z'
F0
sg76
F40
sa(dp357
g13
F0
sg14
F0
sg15
S''
sg75
F0
sg16
S''
sg17
S''
sg30
I00
sg20
F0
sg21
F0
sg22
S''
sg23
F40
sg24
I01
sS'audioMoveSoundTimeout'
p358
F0
sS'topImagePositionX'
p359
F0
sS'topImagePositionY'
p360
F0
sg26
I00
sg27
I00
sS'topImageAnchorX'
p361
F0
sS'topImageAnchorY'
p362
F0
sg18
S'255,255,255'
p363
sS'topImageName'
p364
S''
sg31
F0
sg32
S'0,0,0'
p365
sg34
F0
sg28
S'0,0,0'
p366
sg36
S''
sg37
I00
sS'topImageOpacity'
p367
I0
sS'kPaddleFlagNoPositionLimit'
p368
I00
sg39
I00
sg40
S''
sg41
I255
sg42
I255
sg43
F-21
sg44
F447
sg45
S'paddleMove.caf'
p369
sg25
F0
sS'topImageHeight'
p370
I0
sg47
I00
sg48
F0
sg49
F0
sg50
S''
sg51
S'orangekid'
p371
sS'topImageRotation'
p372
F0
sg53
I16
sg54
S''
sg55
I00
sg56
F0
sg57
S''
sg58
I0
sg38
S''
sg59
(lp373
sg64
F0
sg62
I00
sg35
F0
sg63
I1
sg61
S''
sg65
I00
sg66
I00
sS'scorePerHit'
p374
I0
sS'textureName'
p375
S''
sg69
I00
sg70
I00
sg71
S'paddleHit.caf'
p376
sg73
S'"lights": [\n\n{\n    "lightID": -1,\n    "kind": kLightKindRect,\n    "enabled": True,\n    "flags": kLightFlagBlink,\n    "positionX": 0.5,\n    "positionY": 0.5,\n    "width": 9,\n    "height": 9,\n    "opacity": 0,\n\n    "power": 0.0,\n},\n\n],\n'
p377
sg67
I0
sS'topImageWidth'
p378
I0
sS'z'
F0
sg76
F40
sg74
I00
sa(dp379
g13
F0
sg14
F0
sg15
S''
sg16
S''
sg17
S''
sg18
S'255,255,255'
p380
sg20
F0
sg21
F0
sg22
S''
sg23
F40
sg24
I01
sg25
F0
sg26
I00
sg27
I00
sg28
S'0,0,0'
p381
sg30
I00
sg31
F0
sg32
S'0,0,0'
p382
sg34
F0
sg35
F0
sg36
S''
sg37
I00
sg38
S''
sg39
I00
sg40
S''
sg41
I255
sg42
I255
sg43
F921
sg44
F597
sg45
g46
sg47
I00
sg48
F0
sg49
F0
sg50
S''
sg51
S'orangekid'
p383
sg53
I16
sg54
S''
sg55
I00
sg56
F0
sg57
S''
sg58
I0
sg59
(lp384
sg61
S''
sg62
I00
sg63
I1
sg64
F0
sg65
I00
sg66
I00
sg67
I0
sg69
I00
sg70
I00
sg71
g72
sg73
S'"lights": [\n\n{\n    "lightID": -1,\n    "kind": kLightKindRect,\n    "enabled": True,\n    "flags": kLightFlagBlink,\n    "positionX": 0.5,\n    "positionY": 0.5,\n    "width": 9,\n    "height": 9,\n    "opacity": 0,\n    "power": 0.0,\n},\n\n],\n'
p385
sg74
I00
sg75
F0
sS'z'
F0
sg76
F40
sa(dp386
g13
F0
sg14
F0
sg15
S''
sg16
S''
sg17
S''
sg18
S'255,255,255'
p387
sg20
F0
sg21
F0
sg22
S''
sg23
F40
sg24
I01
sg25
F0
sg26
I00
sg27
I00
sg28
S'0,0,0'
p388
sg30
I00
sg31
F0
sg32
S'0,0,0'
p389
sg34
F0
sg35
F0
sg36
S''
sg37
I00
sg38
S''
sg39
I00
sg40
S''
sg41
I255
sg42
I255
sg43
F921
sg44
F447
sg45
g46
sg47
I00
sg48
F0
sg49
F0
sg50
S''
sg51
S'orangekid'
p390
sg53
I16
sg54
S''
sg55
I00
sg56
F0
sg57
S''
sg58
I0
sg59
(lp391
sg61
S''
sg62
I00
sg63
I1
sg64
F0
sg65
I00
sg66
I00
sg67
I0
sg69
I00
sg70
I00
sg71
g72
sg73
S'"lights": [\n\n{\n    "lightID": -1,\n    "kind": kLightKindRect,\n    "enabled": True,\n    "flags": kLightFlagBlink,\n    "positionX": 0.5,\n    "positionY": 0.5,\n    "width": 9,\n    "height": 9,\n    "opacity": 0,\n    "power": 0.0,\n},\n\n],\n'
p392
sg74
I00
sg75
F0
sS'z'
F0
sg76
F40
sa(dp393
g13
F0
sg14
F0
sg15
S''
sg16
S''
sg17
S''
sg18
S'255,255,255'
p394
sg20
F0
sg21
F0
sg22
S''
sg23
F40
sg24
I01
sg25
F0
sg26
I00
sg27
I00
sg28
S'0,0,0'
p395
sg30
I00
sg31
F0
sg32
S'0,0,0'
p396
sg34
F0
sg35
F0
sg36
S''
sg37
I00
sg38
S''
sg39
I00
sg40
S''
sg41
I255
sg42
I255
sg43
F1667
sg44
F295
sg45
g46
sg47
I00
sg48
F0
sg49
F0
sg50
S''
sg51
S'orangekid'
p397
sg53
I16
sg54
S''
sg55
I00
sg56
F0
sg57
S''
sg58
I0
sg59
(lp398
sg61
S''
sg62
I00
sg63
I1
sg64
F0
sg65
I00
sg66
I00
sg67
I0
sS'textureName'
p399
S''
sg69
I00
sg70
I00
sg71
g72
sg73
S'"lights": [\n\n{\n    "lightID": -1,\n    "kind": kLightKindRect,\n    "enabled": True,\n    "flags": kLightFlagBlink,\n    "positionX": 0.5,\n    "positionY": 0.5,\n    "width": 9,\n    "height": 9,\n    "opacity": 0,\n    "power": 0.0,\n},\n\n],\n'
p400
sg74
I00
sg75
F0
sS'z'
F0
sg76
F40
sa(dp401
g13
F0
sg14
F0
sg15
S''
sg16
S''
sg17
S''
sg18
S'255,255,255'
p402
sg20
F0
sg21
F0
sg22
S''
sg23
F40
sg24
I01
sg25
F0
sg26
I00
sg27
I00
sg28
S'0,0,0'
p403
sg30
I00
sg31
F0
sg32
S'0,0,0'
p404
sg34
F0
sg35
F0
sg36
S''
sg37
I00
sg38
S''
sg39
I00
sg40
S''
sg41
I255
sg42
I255
sg43
F1863
sg44
F295
sg45
g46
sg47
I00
sg48
F0
sg49
F0
sg50
S''
sg51
S'orangekid'
p405
sg53
I16
sg54
S''
sg55
I00
sg56
F0
sg57
S''
sg58
I0
sg59
(lp406
sg61
S''
sg62
I00
sg63
I1
sg64
F0
sg65
I00
sg66
I00
sg67
I0
sS'textureName'
p407
S''
sg69
I00
sg70
I00
sg71
g72
sg73
S'"lights": [\n\n{\n    "lightID": -1,\n    "kind": kLightKindRect,\n    "enabled": True,\n    "flags": kLightFlagBlink,\n    "positionX": 0.5,\n    "positionY": 0.5,\n    "width": 9,\n    "height": 9,\n    "opacity": 0,\n    "power": 0.0,\n},\n\n],\n'
p408
sg74
I00
sg75
F0
sS'z'
F0
sg76
F40
sa(dp409
g13
F0
sg14
F0
sg15
S''
sg75
F0
sg16
S''
sg17
S'pong'
p410
sg30
I00
sg20
F0
sS'textureName'
p411
S''
sg21
F0
sg22
S'{validSides=10;}'
p412
sg23
F10
sg24
I01
sS'audioMoveSoundTimeout'
p413
F0
sS'topImagePositionX'
p414
F0
sS'topImagePositionY'
p415
F0
sg26
I00
sg27
I00
sS'topImageAnchorX'
p416
F0
sS'topImageAnchorY'
p417
F0
sg18
S'255,255,255'
p418
sS'topImageName'
p419
S''
sg31
F0
sg32
S'0,0,0'
p420
sg34
F0
sg28
S'0,0,0'
p421
sg36
S''
sg37
I00
sS'topImageOpacity'
p422
I0
sg39
I00
sg40
S''
sg41
I255
sg42
I255
sg43
F189
sg44
F1109
sg45
S'paddleMove.caf'
p423
sg25
F0
sS'topImageHeight'
p424
I0
sg47
I00
sg48
F0
sg49
F0
sg50
S''
sg51
S'orangekid'
p425
sS'topImageRotation'
p426
F0
sg53
I16
sg54
S''
sg55
I00
sg56
F0
sg57
S''
sg58
I0
sg38
S''
sg59
(lp427
sg64
F0
sg62
I00
sg35
F0
sg63
I1
sg61
S''
sg65
I00
sg66
I00
sS'scorePerHit'
p428
I0
sS'kPaddleFlagNoPositionLimit'
p429
I00
sg69
I00
sg70
I00
sg71
S'paddleHit.caf'
p430
sg73
S'"lights": [\n\n{\n    "lightID": -1,\n    "kind": kLightKindRect,\n    "enabled": True,\n    "flags": kLightFlagBlink,\n    "positionX": 0.5,\n    "positionY": 0.5,\n    "width": 5,\n    "height": 5,\n    "opacity": 0,\n\n    "power": 0.0,\n},\n\n],\n'
p431
sg67
I0
sS'topImageWidth'
p432
I0
sS'z'
F0
sg76
F100
sg74
I00
sa(dp433
g13
F0
sg14
F0
sg15
S''
sg16
S''
sg17
S''
sg18
S'255,255,255'
p434
sg20
F0
sg21
F0
sg22
S''
sg23
F40
sg24
I01
sg25
F0
sg26
I00
sg27
I00
sg28
S'0,0,0'
p435
sg30
I00
sg31
F0
sg32
S'0,0,0'
p436
sg34
F0
sg35
F0
sg36
S''
sg37
I00
sg38
S''
sg39
I00
sg40
S''
sg41
I255
sg42
I255
sg43
F88
sg44
F906
sg45
g46
sg47
I00
sg48
F0
sg49
F0
sg50
S''
sg51
S'orangekid'
p437
sg53
I16
sg54
S''
sg55
I00
sg56
F0
sg57
S''
sg58
I0
sg59
(lp438
sg61
S''
sg62
I00
sg63
I1
sg64
F0
sg65
I00
sg66
I00
sg67
I0
sg69
I00
sg70
I00
sg71
g72
sg73
S'"lights": [\n\n{\n    "lightID": -1,\n    "kind": kLightKindRect,\n    "enabled": True,\n    "flags": kLightFlagBlink,\n    "positionX": 0.5,\n    "positionY": 0.5,\n    "width": 9,\n    "height": 9,\n    "opacity": 0,\n    "power": 0.0,\n},\n\n],\n'
p439
sg74
I00
sg75
F0
sS'z'
F0
sg76
F40
sa(dp440
g13
F0
sg14
F0
sg15
S''
sg16
S''
sg17
S''
sg18
S'255,255,255'
p441
sg20
F0
sg21
F0
sg22
S''
sg23
F40
sg24
I01
sg25
F0
sg26
I00
sg27
I00
sg28
S'0,0,0'
p442
sg30
I00
sg31
F0
sg32
S'0,0,0'
p443
sg34
F0
sg35
F0
sg36
S''
sg37
I00
sg38
S''
sg39
I00
sg40
S''
sg41
I255
sg42
I255
sg43
F346
sg44
F906
sg45
g46
sg47
I00
sg48
F0
sg49
F0
sg50
S''
sg51
S'orangekid'
p444
sg53
I16
sg54
S''
sg55
I00
sg56
F0
sg57
S''
sg58
I0
sg59
(lp445
sg61
S''
sg62
I00
sg63
I1
sg64
F0
sg65
I00
sg66
I00
sg67
I0
sS'textureName'
p446
S''
sg69
I00
sg70
I00
sg71
g72
sg73
S'"lights": [\n\n{\n    "lightID": -1,\n    "kind": kLightKindRect,\n    "enabled": True,\n    "flags": kLightFlagBlink,\n    "positionX": 0.5,\n    "positionY": 0.5,\n    "width": 9,\n    "height": 9,\n    "opacity": 0,\n    "power": 0.0,\n},\n\n],\n'
p447
sg74
I00
sg75
F0
sS'z'
F0
sg76
F40
sa(dp448
g13
F0
sg14
F0
sg15
S''
sg16
S''
sg17
S''
sg18
S'255,255,255'
p449
sg20
F0
sg21
F0
sg22
S''
sg23
F40
sg24
I01
sg25
F0
sg26
I00
sg27
I00
sg28
S'0,0,0'
p450
sg30
I00
sg31
F0
sg32
S'0,0,0'
p451
sg34
F0
sg35
F0
sg36
S''
sg37
I00
sg38
S''
sg39
I00
sg40
S''
sg41
I255
sg42
I255
sg43
F346
sg44
F1045
sg45
g46
sg47
I00
sg48
F0
sg49
F0
sg50
S''
sg51
S'orangekid'
p452
sg53
I16
sg54
S''
sg55
I00
sg56
F0
sg57
S''
sg58
I0
sg59
(lp453
sg61
S''
sg62
I00
sg63
I1
sg64
F0
sg65
I00
sg66
I00
sg67
I0
sg69
I00
sg70
I00
sg71
g72
sg73
S'"lights": [\n\n{\n    "lightID": -1,\n    "kind": kLightKindRect,\n    "enabled": True,\n    "flags": kLightFlagBlink,\n    "positionX": 0.5,\n    "positionY": 0,\n    "width": 9,\n    "height": 9,\n    "opacity": 0,\n    "power": 0.0,\n},\n\n],\n'
p454
sg74
I00
sg75
F0
sS'z'
F0
sg76
F40
sa(dp455
g13
F0
sg14
F0
sg15
S''
sg16
S''
sg17
S''
sg18
S'255,255,255'
p456
sg20
F0
sg21
F0
sg22
S''
sg23
F40
sg24
I01
sg25
F0
sg26
I00
sg27
I00
sg28
S'0,0,0'
p457
sg30
I00
sg31
F0
sg32
S'0,0,0'
p458
sg34
F0
sg35
F0
sg36
S''
sg37
I00
sg38
S''
sg39
I00
sg40
S''
sg41
I255
sg42
I255
sg43
I87
sg44
I1045
sg45
g46
sg47
I00
sg48
F0
sg49
F0
sg50
S''
sg51
S'orangekid'
p459
sg53
I16
sg54
S''
sg55
I00
sg56
F0
sg57
S''
sg58
I0
sg59
(lp460
sg61
S''
sg62
I00
sg63
I1
sg64
F0
sg65
I00
sg66
I00
sg67
I0
sg69
I00
sg70
I00
sg71
g72
sg73
S'"lights": [\n\n{\n    "lightID": -1,\n    "kind": kLightKindRect,\n    "enabled": True,\n    "flags": kLightFlagBlink,\n    "positionX": 0.5,\n    "positionY": 0,\n    "width": 9,\n    "height": 9,\n    "opacity": 0,\n    "power": 0.0,\n},\n\n],\n'
p461
sg74
I00
sg75
F0
sS'z'
F0
sg76
F40
sa(dp462
g13
F0
sg14
F0
sg15
S''
sg16
S''
sg17
S'pong'
p463
sg18
S'255,255,255'
p464
sg20
F0
sS'textureName'
p465
S''
sg21
F0
sg22
S''
sg23
F64
sg24
I01
sS'audioMoveSoundTimeout'
p466
F0
sS'topImagePositionX'
p467
F0
sS'topImagePositionY'
p468
F0
sg26
I00
sg27
I00
sS'topImageWidth'
p469
I0
sS'topImageAnchorX'
p470
F0
sS'topImageAnchorY'
p471
F0
sg30
I00
sS'topImageName'
p472
S''
sg31
F0
sg32
S'0,0,0'
p473
sg34
F0
sg28
S'0,0,0'
p474
sg36
S''
sg37
I00
sS'topImageOpacity'
p475
I0
sg39
I00
sg40
S''
sg41
I255
sg42
I255
sg43
F-414
sg44
F555
sg45
S'paddleMove.caf'
p476
sg25
F0
sS'topImageHeight'
p477
I0
sg47
I00
sg48
F0
sg49
F0
sg50
S''
sg51
S'orangekid'
p478
sS'topImageRotation'
p479
F0
sg53
I16
sg54
S''
sg75
F0
sg56
F0
sg57
S''
sg58
I0
sg38
S''
sg59
(lp480
sg64
F0
sg62
I00
sg35
F0
sg63
I1
sg61
S''
sg65
I00
sg66
I00
sS'scorePerHit'
p481
I0
sS'kPaddleFlagNoPositionLimit'
p482
I00
sg69
I00
sg70
I00
sg71
S'paddleHit.caf'
p483
sg73
S''
sg67
I0
sg55
I00
sS'z'
F0
sg76
F10
sg74
I00
sa(dp484
g13
F0
sg14
F0
sg15
S''
sg16
S''
sg17
S''
sg18
S'255,255,255'
p485
sg20
F0
sg21
F0
sg22
S''
sg23
F79
sg24
I01
sg25
F0
sg26
I00
sg27
I00
sg28
S'0,0,0'
p486
sg30
I00
sg31
F0
sg32
S'0,0,0'
p487
sg34
F0
sg35
F0
sg36
S''
sg37
I00
sg38
S''
sg39
I00
sg40
S''
sg41
I255
sg42
I255
sg43
I164
sg44
I1251
sg45
g46
sg47
I00
sg48
F0
sg49
F0
sg50
S''
sg51
S'orangekid'
p488
sg53
I16
sg54
S''
sg55
I00
sg56
F0
sg57
S''
sg58
I0
sg59
(lp489
sg61
S''
sg62
I00
sg63
I1
sg64
F0
sg65
I00
sg66
I00
sg67
I0
sg113
S''
sg69
I00
sg70
I00
sg71
g72
sg73
S''
sg74
I00
sg75
F0
sS'z'
F0
sg76
F103
sa(dp490
g13
F0
sg14
F0
sg15
S''
sg16
S''
sg17
S''
sg18
S'255,255,255'
p491
sg20
F0
sg21
F0
sg22
S''
sg23
F83
sg24
I01
sg25
F0
sg26
I00
sg27
I00
sg28
S'0,0,0'
p492
sg30
I00
sg31
F0
sg32
S'0,0,0'
p493
sg34
F0
sg35
F0
sg36
S''
sg37
I00
sg38
S''
sS'kPaddleFlagNoPositionLimit'
p494
I00
sg39
I00
sg40
S''
sg41
I255
sg42
I255
sg43
F163
sg44
F1372
sg45
S'paddleMove.caf'
p495
sg47
I00
sg48
F0
sg49
F0
sg50
S''
sg51
S'orangekid'
p496
sg53
I16
sg54
S''
sg55
I00
sg56
F0
sg57
S''
sg58
I0
sg59
(lp497
sg61
S''
sg62
I00
sg63
I1
sg64
F0
sg65
I00
sg66
I00
sg67
I0
sg113
S''
sg69
I00
sg70
I00
sg71
S'paddleHit.caf'
p498
sg73
S''
sg74
I00
sg75
F0
sS'z'
F0
sg76
F103
sa(dp499
g13
F0
sg14
F0
sg15
S''
sg16
S''
sg17
S''
sg18
S'255,255,255'
p500
sg20
F0
sg21
F0
sg22
S''
sg23
F200
sg24
I01
sg25
F0
sg26
I00
sg27
I00
sg28
S'0,0,0'
p501
sg30
I00
sg31
F0
sg32
S'0,0,0'
p502
sg34
F0
sg35
F0
sg36
S''
sg37
I00
sg38
S''
sS'kPaddleFlagNoPositionLimit'
p503
I00
sg39
I00
sg40
S''
sg41
I255
sg42
I255
sg43
F319
sg44
F1249
sg45
S'paddleMove.caf'
p504
sg47
I00
sg48
F0
sg49
F0
sg50
S''
sg51
S'orangekid'
p505
sg53
I16
sg54
S''
sg55
I00
sg56
F0
sg57
S''
sg58
I0
sg59
(lp506
sg61
S''
sg62
I00
sg63
I1
sg64
F0
sg65
I00
sg66
I00
sg67
I0
sg113
S''
sg69
I00
sg70
I00
sg71
S'paddleHit.caf'
p507
sg73
S''
sg74
I00
sg75
F0
sS'z'
F0
sg76
F103
sa(dp508
g13
F0
sg14
F0
sg15
S''
sg16
S''
sg17
S''
sg18
S'255,255,255'
p509
sg20
F0
sg21
F0
sg22
S''
sg23
F34
sg24
I01
sS'audioMoveSoundTimeout'
p510
F0
sS'topImagePositionX'
p511
F0
sS'topImagePositionY'
p512
F0
sg26
I00
sg27
I00
sS'topImageAnchorX'
p513
F0
sS'topImageAnchorY'
p514
F0
sg30
I00
sS'topImageName'
p515
S''
sg31
F0
sg32
S'0,0,0'
p516
sg34
F0
sg28
S'0,0,0'
p517
sg36
S''
sg37
I00
sS'topImageOpacity'
p518
I0
sS'kPaddleFlagNoPositionLimit'
p519
I00
sg39
I00
sg40
S''
sg41
I255
sg42
I255
sg43
F48
sg44
F1499
sg45
S'paddleMove.caf'
p520
sg25
F0
sS'topImageHeight'
p521
I0
sg47
I00
sg48
F0
sg49
F0
sg50
S''
sg51
S'orangekid'
p522
sS'topImageRotation'
p523
F0
sg53
I16
sg54
S''
sg75
F0
sg56
F0
sg57
S''
sg58
I0
sg38
S''
sg59
(lp524
sg61
S'lab1'
p525
sg62
I00
sg35
F0
sg63
I1
sS'z'
F0
sg64
F0
sg65
I00
sg66
I00
sg67
I0
sg113
S''
sg69
I00
sg70
I00
sg71
S'paddleHit.caf'
p526
sg73
S''
sg74
I00
sg55
I00
sS'topImageWidth'
p527
I0
sg76
F300
sa(dp528
g13
F0
sg14
F0
sg15
S''
sg16
S''
sg17
S''
sg18
S'255,255,255'
p529
sg20
F0
sg21
F0
sg22
S''
sg23
F50
sg24
I01
sg25
F0
sg26
I00
sg27
I00
sg28
S'0,0,0'
p530
sg30
I00
sg31
F0
sg32
S'0,0,0'
p531
sg34
F0
sg35
F0
sg36
S''
sg37
I00
sg38
S''
sg39
I00
sg40
S''
sg41
I255
sg42
I255
sg43
F0
sg44
F1594
sg45
g46
sg47
I00
sg48
F0
sg49
F0
sg50
S''
sg51
S'orangekid'
p532
sg53
I16
sg54
S''
sg55
I00
sg56
F0
sg57
S''
sg58
I0
sg59
(lp533
sg61
S''
sg62
I00
sg63
I1
sg64
F0
sg65
I00
sg66
I00
sg67
I0
sg113
S''
sg69
I00
sg70
I00
sg71
g72
sg73
S''
sg74
I00
sg75
F0
sS'z'
F0
sg76
F300
sa(dp534
g13
F0
sg14
F0
sg15
S''
sg16
S''
sg17
S''
sg18
S'255,255,255'
p535
sg20
F0
sg21
F0
sg22
S''
sg23
F67
sg24
I01
sS'audioMoveSoundTimeout'
p536
F0
sS'topImagePositionX'
p537
F0
sS'topImagePositionY'
p538
F0
sg26
I00
sg27
I00
sS'topImageAnchorX'
p539
F0
sS'topImageAnchorY'
p540
F0
sg30
I00
sS'topImageName'
p541
S''
sg31
F0
sg32
S'0,0,0'
p542
sg34
F0
sg28
S'0,0,0'
p543
sg36
S''
sg37
I00
sS'topImageOpacity'
p544
I0
sS'kPaddleFlagNoPositionLimit'
p545
I00
sg39
I00
sg40
S''
sg41
I255
sg42
I255
sg43
F126
sg44
F1529
sg45
S'paddleMove.caf'
p546
sg25
F0
sS'topImageHeight'
p547
I0
sg47
I00
sg48
F0
sg49
F0
sg50
S''
sg51
S'orangekid'
p548
sS'topImageRotation'
p549
F0
sg53
I16
sg54
S''
sg75
F0
sg56
F0
sg57
S''
sg58
I0
sg38
S''
sg59
(lp550
sg61
S''
sg62
I00
sg35
F0
sg63
I1
sS'z'
F0
sg64
F0
sg65
I00
sg66
I00
sg67
I0
sg113
S''
sg69
I00
sg70
I00
sg71
S'paddleHit.caf'
p551
sg73
S''
sg74
I00
sg55
I00
sS'topImageWidth'
p552
I0
sg76
F103
sa(dp553
g13
F0
sg14
F0
sg15
S''
sg16
S''
sg17
S''
sg18
S'255,255,255'
p554
sg20
F0
sg21
F0
sg22
S''
sg23
F95
sg24
I01
sg25
F0
sg26
I00
sg27
I00
sg28
S'0,0,0'
p555
sg30
I00
sg31
F0
sg32
S'0,0,0'
p556
sg34
F0
sg35
F0
sg36
S''
sg37
I00
sg38
S''
sg39
I00
sg40
S''
sg41
I255
sg42
I255
sg43
F404
sg44
F1499
sg45
g46
sg47
I00
sg48
F0
sg49
F0
sg50
S''
sg51
S'orangekid'
p557
sg53
I16
sg54
S''
sg55
I00
sg56
F0
sg57
S''
sg58
I0
sg59
(lp558
sg61
S''
sg62
I00
sg63
I1
sg64
F0
sg65
I00
sg66
I00
sg67
I0
sg113
S''
sg69
I00
sg70
I00
sg71
g72
sg73
S''
sg74
I00
sg75
F0
sS'z'
F0
sg76
F76
sa(dp559
g13
F0
sg14
F0
sg15
S''
sg16
S''
sg17
S''
sg18
S'255,255,255'
p560
sg20
F0
sg21
F0
sg22
S''
sg23
F186
sg24
I01
sS'audioMoveSoundTimeout'
p561
F0
sS'topImagePositionX'
p562
F0
sS'topImagePositionY'
p563
F0
sg26
I00
sg27
I00
sS'topImageAnchorX'
p564
F0
sS'topImageAnchorY'
p565
F0
sg30
I00
sS'topImageName'
p566
S''
sg31
F0
sg32
S'0,0,0'
p567
sg34
F0
sg28
S'0,0,0'
p568
sg36
S''
sg37
I00
sS'topImageOpacity'
p569
I0
sS'kPaddleFlagNoPositionLimit'
p570
I00
sg39
I00
sg40
S''
sg41
I255
sg42
I255
sg43
F378
sg44
F1593
sg45
S'paddleMove.caf'
p571
sg25
F0
sS'topImageHeight'
p572
I0
sg47
I00
sg48
F0
sg49
F0
sg50
S''
sg51
S'orangekid'
p573
sS'topImageRotation'
p574
F0
sg53
I16
sg54
S''
sg75
F0
sg56
F0
sg57
S''
sg58
I0
sg38
S''
sg59
(lp575
sg61
S''
sg62
I00
sg35
F0
sg63
I1
sS'z'
F0
sg64
F0
sg65
I00
sg66
I00
sg67
I0
sg113
S''
sg69
I00
sg70
I00
sg71
S'paddleHit.caf'
p576
sg73
S''
sg74
I00
sg55
I00
sS'topImageWidth'
p577
I0
sg76
F103
sa(dp578
g13
F0
sg14
F0
sg15
S''
sg16
S''
sg17
S''
sg18
S'255,255,255'
p579
sg20
F0
sg21
F0
sg22
S''
sg23
F119
sg24
I01
sg25
F0
sg26
I00
sg27
I00
sg28
S'0,0,0'
p580
sg30
I00
sg31
F0
sg32
S'0,0,0'
p581
sg34
F0
sg35
F0
sg36
S''
sg37
I00
sg38
S''
sg39
I00
sg40
S''
sg41
I255
sg42
I255
sg43
F55
sg44
F1751
sg45
g46
sg47
I00
sg48
F0
sg49
F0
sg50
S''
sg51
S'orangekid'
p582
sg53
I16
sg54
S''
sg55
I00
sg56
F0
sg57
S''
sg58
I0
sg59
(lp583
sg61
S''
sg62
I00
sg63
I1
sg64
F0
sg65
I00
sg66
I00
sg67
I0
sg113
S''
sg69
I00
sg70
I00
sg71
g72
sg73
S''
sg74
I00
sg75
F0
sS'z'
F0
sg76
F103
sa(dp584
g13
F0
sg14
F0
sg15
S''
sg16
S''
sg17
S''
sg18
S'255,255,255'
p585
sg20
F0
sg21
F0
sg22
S''
sg23
F84
sg24
I01
sg25
F0
sg26
I00
sg27
I00
sg28
S'0,0,0'
p586
sg30
I00
sg31
F0
sg32
S'0,0,0'
p587
sg34
F0
sg35
F0
sg36
S''
sg37
I00
sg38
S''
sg39
I00
sg40
S''
sg41
I255
sg42
I255
sg43
F216
sg44
F1695
sg45
g46
sg47
I00
sg48
F0
sg49
F0
sg50
S''
sg51
S'orangekid'
p588
sg53
I16
sg54
S''
sg55
I00
sg56
F0
sg57
S''
sg58
I0
sg59
(lp589
sg61
S''
sg62
I00
sg63
I1
sg64
F0
sg65
I00
sg66
I00
sg67
I0
sg113
S''
sg69
I00
sg70
I00
sg71
g72
sg73
S''
sg74
I00
sg75
F0
sS'z'
F0
sg76
F103
sa(dp590
g13
F0
sg14
F0
sg15
S''
sg16
S''
sg17
S''
sg18
S'255,255,255'
p591
sg20
F0
sg21
F0
sg22
S''
sg23
F36
sg24
I01
sg25
F0
sg26
I00
sg27
I00
sg28
S'0,0,0'
p592
sg30
I00
sg31
F0
sg32
S'0,0,0'
p593
sg34
F0
sg35
F0
sg36
S''
sg37
I00
sg38
S''
sg39
I00
sg40
S''
sg41
I255
sg42
I255
sg43
F297
sg44
F1743
sg45
g46
sg47
I00
sg48
F0
sg49
F0
sg50
S''
sg51
S'orangekid'
p594
sg53
I16
sg54
S''
sg55
I00
sg56
F0
sg57
S''
sg58
I0
sg59
(lp595
sg61
S''
sg62
I00
sg63
I1
sg64
F0
sg65
I00
sg66
I00
sg67
I0
sg113
S''
sg69
I00
sg70
I00
sg71
g72
sg73
S''
sg74
I00
sg75
F0
sS'z'
F0
sg76
F83
sa(dp596
S'maxX'
p597
F0
sS'maxY'
p598
F1830
sS'audioClickSound'
p599
S''
sS'labelText'
p600
S''
sS'labelOpacity'
p601
I255
sS'aiDefensiveKind'
p602
S''
sS'colorColor1'
p603
S'255,255,255'
p604
sS'energy'
p605
F0
sS'elasticity'
p606
F0
sS'aiDefensiveConfig'
p607
S''
sS'height'
p608
F34
sS'kPaddleFlagEnabled'
p609
I01
sS'proximityAccelerationX'
p610
F0
sS'kPaddleFlagScriptHandleTouches'
p611
I00
sS'kPaddleFlagScriptOnExit'
p612
I00
sS'labelColor'
p613
S'0,0,0'
p614
sS'kPaddleFlagScriptOnSideToggled'
p615
I00
sS'proximityAccelerationY'
p616
F0
sS'colorColor2'
p617
S'0,0,0'
p618
sS'minX'
p619
F0
sS'minY'
p620
F1777
sS'audioHitSound'
p621
S'paddleHit.caf'
p622
sS'kPaddleFlagScriptOnEnter'
p623
I00
sS'aiOffensiveKind'
p624
S''
sS'kPaddleFlagNoPositionLimit'
p625
I00
sS'kPaddleFlagBlockTouches'
p626
I00
sS'audioInSound'
p627
S''
sS'colorOpacity'
p628
I255
sS'aiOffensiveConfig'
p629
S''
sS'positionX'
p630
F237
sS'positionY'
p631
F1830
sS'audioMoveSound'
p632
S'paddleMove.caf'
p633
sS'kPaddleFlagScriptOnHeroInProxymityArea'
p634
I00
sS'proximityWidth'
p635
F0
sS'colorTintToDuration'
p636
F0
sS'audioSoundLoop'
p637
S''
sS'labelFont'
p638
S'orangekid'
p639
sS'labelFontSize'
p640
I16
sS'audioOutSound'
p641
S''
sS'kPaddleFlagIsInvisible'
p642
I00
sS'speedX'
p643
F0
sS'scripts'
p644
S''
sS'proximityMode'
p645
I0
sS'lights'
p646
(lp647
sS'proximityHeight'
p648
F0
sS'kPaddleFlagSelected'
p649
I00
sS'kind'
p650
I1
sS'name'
p651
S''
sS'kPaddleFlagIsButton'
p652
I00
sS'kPaddleFlagScriptUpdate'
p653
I00
sS'colorMode'
p654
I0
sS'textureName'
p655
S''
sS'kPaddleFlagScriptApplyProximityInfluenceToHero'
p656
I00
sS'kPaddleFlagCollisionDisabled'
p657
I00
sS'extensions'
p658
S'"lights": [\n\n{\n    "lightID": -1,\n    "kind": kLightKindRect,\n    "enabled": True,\n    "flags": kLightFlagBlink,\n    "positionX": 0,\n    "positionY": 0.5,\n    "width": 5,\n    "height": 5,\n    "opacity": 0,\n    "power": 0.0,\n},\n\n],\n'
p659
sS'kPaddleFlagOffensiveSide'
p660
I00
sS'speedY'
p661
F25
sS'z'
F0
sS'width'
p662
F10
sa(dp663
g13
F0
sg14
F0
sg15
S''
sg16
S''
sg17
S''
sg18
S'255,255,255'
p664
sg20
F0
sg21
F0
sg22
S''
sg23
F14
sg24
I01
sg25
F0
sg26
I00
sg27
I00
sg28
S'0,0,0'
p665
sg30
I00
sg31
F0
sg32
S'0,0,0'
p666
sg34
F0
sg35
F0
sg36
S''
sg37
I00
sg38
S''
sg39
I00
sg40
S''
sg41
I255
sg42
I255
sg43
I118
sg44
I1695
sg45
g46
sg47
I00
sg48
F0
sg49
F0
sg50
S''
sg51
S'orangekid'
p667
sg53
I16
sg54
S''
sg55
I00
sg56
F0
sg57
S''
sg58
I0
sg59
(lp668
sg61
S''
sg62
I00
sg63
I1
sg64
F0
sg65
I00
sg66
I00
sg67
I0
sg113
S''
sg69
I00
sg70
I00
sg71
g72
sg73
S''
sg74
I00
sg75
F0
sS'z'
F0
sg76
F100
sa(dp669
g597
F0
sg598
F1830
sg599
S''
sg600
S''
sg601
I255
sg602
S''
sg603
S'255,255,255'
p670
sg605
F0
sg606
F0
sg607
S''
sg608
F34
sg609
I01
sg610
F0
sg611
I00
sg612
I00
sg613
S'0,0,0'
p671
sg615
I00
sg616
F0
sg617
S'0,0,0'
p672
sg619
F0
sg620
F1777
sg621
g72
sg623
I00
sg624
S''
sg626
I00
sg627
S''
sg628
I255
sg629
S''
sg630
F278
sg631
F1777
sg632
g46
sg634
I00
sg635
F0
sg636
F0
sg637
S''
sg638
S'orangekid'
p673
sg640
I16
sg641
S''
sg642
I00
sg643
F0
sg644
S''
sg645
I0
sg646
(lp674
sg648
F0
sg649
I00
sg650
I1
sg651
S''
sg652
I00
sg653
I00
sg654
I0
sg655
S''
sg656
I00
sg657
I00
sg658
S'"lights": [\n\n{\n    "lightID": -1,\n    "kind": kLightKindRect,\n    "enabled": True,\n    "flags": kLightFlagBlink,\n    "positionX": 0.8,\n    "positionY": 0.9,\n    "width": 5,\n    "height": 5,\n    "opacity": 0,\n    "power": 0.0,\n},\n\n],\n'
p675
sg660
I00
sg661
F20
sS'z'
F0
sg662
F10
sa(dp676
g597
F0
sg598
F1830
sg599
S''
sg600
S''
sg601
I255
sg602
S''
sg603
S'255,255,255'
p677
sg605
F0
sg606
F0
sg607
S''
sg608
F34
sg609
I01
sg610
F0
sg611
I00
sg612
I00
sg613
S'0,0,0'
p678
sg615
I00
sg616
F0
sg617
S'0,0,0'
p679
sg619
F0
sg620
F1777
sg621
g72
sg623
I00
sg624
S''
sg626
I00
sg627
S''
sg628
I255
sg629
S''
sg630
F316
sg631
F1808
sg632
g46
sg634
I00
sg635
F0
sg636
F0
sg637
S''
sg638
S'orangekid'
p680
sg640
I16
sg641
S''
sg642
I00
sg643
F0
sg644
S''
sg645
I0
sg646
(lp681
sg648
F0
sg649
I00
sg650
I1
sg651
S''
sg652
I00
sg653
I00
sg654
I0
sg655
S''
sg656
I00
sg657
I00
sg658
S'"lights": [\n\n{\n    "lightID": -1,\n    "kind": kLightKindRect,\n    "enabled": True,\n    "flags": kLightFlagBlink,\n    "positionX": 0.2,\n    "positionY": 0.5,\n    "width": 5,\n    "height": 5,\n    "opacity": 0,\n    "power": 0.0,\n},\n\n],\n'
p682
sg660
I00
sg661
F19
sS'z'
F0
sg662
F10
sa(dp683
g597
F0
sg598
F1830
sg599
S''
sg600
S''
sg601
I255
sg602
S''
sg603
S'255,255,255'
p684
sg605
F0
sg606
F0
sg607
S''
sg608
F34
sg609
I01
sg610
F0
sg611
I00
sg612
I00
sg613
S'0,0,0'
p685
sg615
I00
sg616
F0
sg617
S'0,0,0'
p686
sg619
F0
sg620
F1777
sg621
g72
sg623
I00
sg624
S''
sg626
I00
sg627
S''
sg628
I255
sg629
S''
sg630
F360
sg631
F1830
sg632
g46
sg634
I00
sg635
F0
sg636
F0
sg637
S''
sg638
S'orangekid'
p687
sg640
I16
sg641
S''
sg642
I00
sg643
F0
sg644
S''
sg645
I0
sg646
(lp688
sg648
F0
sg649
I00
sg650
I1
sg651
S''
sg652
I00
sg653
I00
sg654
I0
sg655
S''
sg656
I00
sg657
I00
sg658
S'"lights": [\n\n{\n    "lightID": -1,\n    "kind": kLightKindRect,\n    "enabled": True,\n    "flags": kLightFlagBlink,\n    "positionX": 0.7,\n    "positionY": 0.2,\n    "width": 5,\n    "height": 5,\n    "opacity": 0,\n    "power": 0.0,\n},\n\n],\n'
p689
sg660
I00
sg661
F26
sS'z'
F0
sg662
F10
sa(dp690
g597
F0
sg598
F1830
sg599
S''
sg600
S''
sg601
I255
sg602
S''
sg603
S'255,255,255'
p691
sg605
F0
sg606
F0
sg607
S''
sg608
F34
sg609
I01
sg610
F0
sg611
I00
sg612
I00
sg613
S'0,0,0'
p692
sg615
I00
sg616
F0
sg617
S'0,0,0'
p693
sg619
F0
sg620
F1777
sg621
S'paddleHit.caf'
p694
sg623
I00
sg624
S''
sS'kPaddleFlagNoPositionLimit'
p695
I00
sg626
I00
sg627
S''
sg628
I255
sg629
S''
sg630
F401
sg631
F1782
sg632
S'paddleMove.caf'
p696
sg634
I00
sg635
F0
sg636
F0
sg637
S''
sg638
S'orangekid'
p697
sg640
I16
sg641
S''
sg642
I00
sg643
F0
sg644
S''
sg645
I0
sg646
(lp698
sg648
F0
sg649
I00
sg650
I1
sg651
S''
sg652
I00
sg653
I00
sg654
I0
sg655
S''
sg656
I00
sg657
I00
sg658
S'"lights": [\n\n{\n    "lightID": -1,\n    "kind": kLightKindRect,\n    "enabled": True,\n    "flags": kLightFlagBlink,\n    "positionX": 0,\n    "positionY": 0.5,\n    "width": 5,\n    "height": 5,\n    "opacity": 0,\n    "power": 0.0,\n},\n\n],\n'
p699
sg660
I00
sg661
F20
sS'z'
F0
sg662
F10
sa(dp700
g597
F0
sg598
F1830
sg599
S''
sg600
S''
sg601
I255
sg602
S''
sg615
I00
sg605
F0
sg606
F0
sg607
S''
sg608
F34
sg609
I01
sS'audioMoveSoundTimeout'
p701
F0
sS'topImagePositionX'
p702
F0
sS'topImagePositionY'
p703
F0
sg611
I00
sg612
I00
sS'topImageAnchorX'
p704
F0
sS'topImageAnchorY'
p705
F0
sg603
S'255,255,255'
p706
sS'topImageName'
p707
S''
sg616
F0
sg617
S'0,0,0'
p708
sg619
F0
sg613
S'0,0,0'
p709
sg621
S'paddleHit.caf'
p710
sg623
I00
sS'topImageOpacity'
p711
I0
sS'kPaddleFlagNoPositionLimit'
p712
I00
sg626
I00
sg627
S''
sg628
I255
sg629
S''
sg630
F438
sg631
F1829
sg632
S'paddleMove.caf'
p713
sg610
F0
sS'topImageHeight'
p714
I0
sg634
I00
sg635
F0
sg636
F0
sg637
S''
sg638
S'orangekid'
p715
sS'topImageRotation'
p716
F0
sg640
I16
sg641
S''
sg661
F27
sg643
F0
sg644
S''
sg645
I0
sg624
S''
sg646
(lp717
sg651
S'lab2'
p718
sg649
I00
sg620
F1777
sg650
I1
sS'z'
F0
sg648
F0
sg652
I00
sg653
I00
sg654
I0
sg655
S''
sg656
I00
sg657
I00
sg658
S'"lights": [\n\n{\n    "lightID": -1,\n    "kind": kLightKindRect,\n    "enabled": True,\n    "flags": kLightFlagBlink,\n    "positionX": 0.7,\n    "positionY": 0.7,\n    "width": 5,\n    "height": 5,\n    "opacity": 0,\n    "power": 0.0,\n},\n\n],\n'
p719
sg660
I00
sg642
I00
sS'topImageWidth'
p720
I0
sg662
F10
sa(dp721
g13
F0
sg14
F0
sg15
S''
sg16
S''
sg17
S'pong'
p722
sg30
I00
sg20
F0
sg21
F0
sg22
S'{validSides=10;}'
p723
sg23
F10
sg24
I01
sS'audioMoveSoundTimeout'
p724
F0
sS'topImagePositionX'
p725
F0
sS'topImagePositionY'
p726
F0
sg26
I00
sg27
I00
sS'topImageAnchorX'
p727
F0
sS'topImageAnchorY'
p728
F0
sg18
S'255,255,255'
p729
sS'topImageName'
p730
S''
sg31
F0
sg32
S'0,0,0'
p731
sg34
F0
sg28
S'0,0,0'
p732
sg36
S''
sg37
I00
sS'topImageOpacity'
p733
I0
sS'kPaddleFlagNoPositionLimit'
p734
I00
sg39
I00
sg40
S''
sg41
I255
sg42
I255
sg43
F206
sg44
F468
sg45
S'paddleMove.caf'
p735
sg25
F0
sS'topImageHeight'
p736
I0
sg47
I00
sg48
F0
sg49
F0
sg50
S''
sg51
S'orangekid'
p737
sS'topImageRotation'
p738
F0
sg53
I16
sg54
S''
sg75
F0
sg56
F0
sg57
S''
sg58
I0
sg38
S''
sg59
(lp739
sg61
S''
sg62
I00
sg35
F0
sg63
I1
sS'z'
F0
sg64
F0
sg65
I00
sg66
I00
sS'scorePerHit'
p740
I0
sg411
S''
sg69
I00
sg70
I00
sg71
S'paddleHit.caf'
p741
sg73
S'"lights": [\n\n{\n    "lightID": -1,\n    "kind": kLightKindRect,\n    "enabled": True,\n    "flags": kLightFlagBlink,\n    "positionX": 0.5,\n    "positionY": 0.5,\n    "width": 9,\n    "height": 5,\n    "opacity": 0,\n\n    "power": 0.0,\n},\n\n],\n'
p742
sg67
I0
sg55
I00
sS'topImageWidth'
p743
I0
sg76
F100
sg74
I00
sa(dp744
g13
F0
sg14
F0
sg15
S''
sg75
F0
sg16
S''
sg17
S'pong'
p745
sg30
I00
sg20
F0
sg465
S''
sg21
F0
sg22
S''
sg23
F100
sg24
I01
sS'audioMoveSoundTimeout'
p746
F0
sS'topImagePositionX'
p747
F0
sS'topImagePositionY'
p748
F0
sg26
I00
sg27
I00
sS'topImageAnchorX'
p749
F0
sS'topImageAnchorY'
p750
F0
sg18
S'255,255,255'
p751
sS'topImageName'
p752
S''
sg31
F0
sg32
S'0,0,0'
p753
sg34
F0
sg28
S'0,0,0'
p754
sg36
S''
sg37
I00
sS'topImageOpacity'
p755
I0
sg39
I00
sg40
S''
sg41
I255
sg42
I255
sg43
F705
sg44
F408
sg45
S'paddleMove.caf'
p756
sg25
F0
sS'topImageHeight'
p757
I0
sg47
I00
sg48
F0
sg49
F0
sg50
S''
sg51
S'orangekid'
p758
sS'topImageRotation'
p759
F0
sg53
I16
sg54
S''
sg55
I00
sg56
F0
sg57
S''
sg58
I0
sg38
S''
sg59
(lp760
sg64
F0
sg62
I00
sg35
F0
sg63
I1
sg61
S''
sg65
I00
sg66
I00
sS'scorePerHit'
p761
I0
sS'kPaddleFlagNoPositionLimit'
p762
I00
sg69
I00
sg70
I00
sg71
S'paddleHit.caf'
p763
sg73
S'"lights": [\n\n{\n    "lightID": -1,\n    "kind": kLightKindRect,\n    "enabled": True,\n    "flags": kLightFlagBlink,\n    "positionX": 0.5,\n    "positionY": 0.5,\n    "width": 5,\n    "height": 9,\n    "opacity": 0,\n\n    "power": 0.0,\n},\n\n],\n'
p764
sg67
I0
sS'topImageWidth'
p765
I0
sS'z'
F0
sg76
F10
sg74
I00
sa(dp766
S'maxX'
p767
F0
sS'maxY'
p768
F0
sS'audioClickSound'
p769
S''
sS'labelText'
p770
S''
sS'labelOpacity'
p771
I255
sS'aiDefensiveKind'
p772
S''
sS'colorColor1'
p773
S'255,255,255'
p774
sS'energy'
p775
F0
sS'elasticity'
p776
F0
sS'aiDefensiveConfig'
p777
S''
sS'height'
p778
F17
sS'kPaddleFlagEnabled'
p779
I01
sS'proximityAccelerationX'
p780
F0
sS'kPaddleFlagScriptHandleTouches'
p781
I00
sS'kPaddleFlagScriptOnExit'
p782
I00
sS'labelColor'
p783
S'0,0,0'
p784
sS'kPaddleFlagScriptOnSideToggled'
p785
I00
sS'proximityAccelerationY'
p786
F0
sS'colorColor2'
p787
S'0,0,0'
p788
sS'minX'
p789
F0
sS'minY'
p790
F0
sS'audioHitSound'
p791
g72
sS'kPaddleFlagScriptOnEnter'
p792
I00
sS'aiOffensiveKind'
p793
S''
sS'kPaddleFlagBlockTouches'
p794
I00
sS'audioInSound'
p795
S''
sS'colorOpacity'
p796
I255
sS'aiOffensiveConfig'
p797
S''
sS'positionX'
p798
F480
sS'positionY'
p799
F1546
sS'audioMoveSound'
p800
g46
sS'kPaddleFlagScriptOnHeroInProxymityArea'
p801
I00
sS'proximityWidth'
p802
F0
sS'colorTintToDuration'
p803
F0
sS'audioSoundLoop'
p804
S''
sS'labelFont'
p805
S'orangekid'
p806
sS'labelFontSize'
p807
I16
sS'audioOutSound'
p808
S''
sS'kPaddleFlagIsInvisible'
p809
I00
sS'speedX'
p810
F0
sS'scripts'
p811
S''
sS'proximityMode'
p812
I0
sS'lights'
p813
(lp814
sS'proximityHeight'
p815
F0
sS'kPaddleFlagSelected'
p816
I00
sS'kind'
p817
I1
sS'name'
p818
S''
sS'kPaddleFlagIsButton'
p819
I00
sS'kPaddleFlagScriptUpdate'
p820
I00
sS'colorMode'
p821
I0
sS'textureName'
p822
S''
sS'kPaddleFlagScriptApplyProximityInfluenceToHero'
p823
I00
sS'kPaddleFlagCollisionDisabled'
p824
I00
sS'extensions'
p825
S''
sS'kPaddleFlagOffensiveSide'
p826
I00
sS'speedY'
p827
F0
sS'z'
F0
sS'width'
p828
F241
sa(dp829
g767
F0
sg768
F0
sg769
S''
sg770
S''
sg771
I255
sg772
S''
sg773
S'255,255,255'
p830
sg775
F0
sg776
F0
sg777
S''
sg778
F20
sg779
I01
sg780
F0
sg781
I00
sg782
I00
sg783
S'0,0,0'
p831
sg785
I00
sg786
F0
sg787
S'0,0,0'
p832
sg789
F0
sg790
F0
sg791
g72
sg792
I00
sg793
S''
sg794
I00
sg795
S''
sg796
I255
sg797
S''
sg798
F935
sg799
F1544
sg800
g46
sg801
I00
sg802
F0
sg803
F0
sg804
S''
sg805
S'orangekid'
p833
sg807
I16
sg808
S''
sg809
I00
sg810
F0
sg811
S''
sg812
I0
sg813
(lp834
sg815
F0
sg816
I00
sg817
I1
sg818
S''
sg819
I00
sg820
I00
sg821
I0
sg822
S''
sg823
I00
sg824
I00
sg825
S'"lights": [\n\n{\n    "lightID": -1,\n    "kind": kLightKindRect,\n    "enabled": True,\n    "flags": kLightFlagBlink,\n    "positionX": 0.0,\n    "positionY": 0.0,\n    "width": 25,\n    "height": 9,\n    "opacity": 0,\n    "power": 0.0,\n},\n\n],\n'
p835
sg826
I00
sg827
F0
sS'z'
F0
sg828
F264
sa(dp836
g767
F0
sg768
F0
sg769
S''
sg770
S''
sg771
I255
sg772
S''
sg773
S'255,255,255'
p837
sg775
F0
sg776
F0
sg777
S''
sg778
F23
sg779
I01
sg780
F0
sg781
I00
sg782
I00
sg783
S'0,0,0'
p838
sg785
I00
sg786
F0
sg787
S'0,0,0'
p839
sg789
F0
sg790
F0
sg791
g72
sg792
I00
sg793
S''
sg794
I00
sg795
S''
sg796
I255
sg797
S''
sg798
F718
sg799
F1242
sg800
g46
sg801
I00
sg802
F0
sg803
F0
sg804
S''
sg805
S'orangekid'
p840
sg807
I16
sg808
S''
sg809
I00
sg810
F0
sg811
S''
sg812
I0
sg813
(lp841
sg815
F0
sg816
I00
sg817
I1
sg818
S''
sg819
I00
sg820
I00
sg821
I0
sg822
S''
sg823
I00
sg824
I00
sg825
S''
sg826
I00
sg827
F0
sS'z'
F0
sg828
F208
sa(dp842
g767
F1194
sg768
F0
sg769
S''
sg770
S''
sg771
I255
sg772
S''
sg773
S'255,255,255'
p843
sg775
F0
sg822
S''
sg776
F0
sg777
S''
sg778
F23
sg779
I01
sg780
F0
sg781
I00
sg782
I00
sg783
S'0,0,0'
p844
sg785
I00
sg786
F0
sg787
S'0,0,0'
p845
sg789
F924
sg790
F0
sg791
S'paddleHit.caf'
p846
sg792
I00
sg793
S''
sg794
I00
sg795
S''
sg796
I255
sg797
S''
sg798
F1194
sg799
F1242
sg800
S'paddleMove.caf'
p847
sg801
I00
sg802
F0
sg803
F0
sg804
S''
sg805
S'orangekid'
p848
sg807
I16
sg808
S''
sg809
I00
sg810
F-70
sg811
S''
sg812
I0
sg813
(lp849
sg815
F0
sg816
I00
sg817
I1
sg818
S''
sg819
I00
sg820
I00
sg821
I0
sS'kPaddleFlagNoPositionLimit'
p850
I01
sg823
I00
sg824
I00
sg825
S'"lights": [\n\n{\n    "lightID": -1,\n    "kind": kLightKindRect,\n    "enabled": True,\n    "flags": kLightFlagBlink,\n    "positionX": 0.0,\n    "positionY": 0.5,\n    "width": 35,\n    "height": 5,\n    "opacity": 0,\n    "power": 0.0,\n},\n\n],\n'
p851
sg826
I00
sg827
F0
sS'z'
F0
sg828
F528
sa(dp852
g13
F0
sg14
F0
sg15
S''
sg16
S'E'
sg17
S''
sg18
S'36,128,28'
p853
sg20
F0
sg446
S''
sg21
F0
sg22
S''
sg23
F40
sg24
I01
sS'audioMoveSoundTimeout'
p854
F0
sS'topImagePositionX'
p855
F0
sS'topImagePositionY'
p856
F0
sg26
I00
sg74
I00
sg27
I00
sS'topImageAnchorX'
p857
F0
sS'topImageAnchorY'
p858
F0
sg30
I00
sS'topImageName'
p859
S''
sg31
F0
sg32
S'36,165,28'
p860
sg34
F0
sg28
S'255,255,255'
p861
sg36
S''
sg37
I00
sS'topImageOpacity'
p862
I0
sg39
I00
sg40
S''
sg41
I255
sg42
I255
sg43
F2272
sg44
F999
sg45
S''
sg25
F0
sS'topImageHeight'
p863
I0
sg47
I00
sg48
F0
sg49
F0.5
sg50
S''
sg51
S'orangekid'
p864
sS'topImageRotation'
p865
F0
sg53
I16
sg54
S''
sg75
F0
sg56
F0
sg57
S'function T:setup ()\n\tPaddle:setup ()\n\n\tself:fxExitInit (self.gotoNextLevel)\nend\n\nfunction T:gotoNextLevel ()\n\tif game.isFreeVersion () and not game.areAllLevelsPurchased () then\n\t\tgame.levelMoveMainHeroToScreenNameAtPosition ("prs", 50, 220)\n\telse\n\t\tlevel:gotoNextLevel ()\n\tend\nend'
p866
sg58
I0
sg38
S''
sg59
(lp867
sg61
S''
sg62
I00
sg35
F0
sg63
I1
sS'z'
F0
sg64
F0
sg65
I00
sg66
I00
sS'scorePerHit'
p868
I0
sS'kPaddleFlagNoPositionLimit'
p869
I00
sg69
I00
sg70
I00
sg71
S''
sg73
S'"lights": [\n\n{\n    "lightID": -1,\n    "kind": kLightKindRect,\n    "enabled": True,\n    "flags": 0,\n    "positionX": 0.5,\n    "positionY": 0.5,\n    "width": 12,\n    "height": 12,\n    "opacity": 0,\n    "power": 0.0,\n},\n\n],\n'
p870
sg67
I1
sg55
I00
sS'topImageWidth'
p871
I0
sg76
F40
sS'kPaddleFlagIsGlobal'
p872
I00
sa(dp873
g767
F0
sg768
F0
sg769
S''
sg827
F0
sg770
S''
sg771
I255
sg772
S'pong'
p874
sg785
I00
sg775
F0
sg776
F0
sg777
S''
sg778
F100
sg779
I01
sS'audioMoveSoundTimeout'
p875
F0
sS'topImagePositionX'
p876
F0
sS'topImagePositionY'
p877
F0
sg781
I00
sg782
I00
sS'topImageAnchorX'
p878
F0
sS'topImageAnchorY'
p879
F0
sg773
S'255,255,255'
p880
sS'topImageName'
p881
S''
sg786
F0
sg787
S'0,0,0'
p882
sg789
F0
sg783
S'0,0,0'
p883
sg791
S'paddleHit.caf'
p884
sg792
I00
sS'topImageOpacity'
p885
I0
sS'kPaddleFlagNoPositionLimit'
p886
I00
sg794
I00
sg795
S''
sg796
I255
sg797
S''
sg798
F977
sg799
F1362
sg800
S'paddleMove.caf'
p887
sg780
F0
sS'topImageHeight'
p888
I0
sg801
I00
sg802
F0
sg803
F0
sg804
S''
sg805
S'orangekid'
p889
sS'topImageRotation'
p890
F0
sg807
I16
sg808
S''
sg809
I00
sg810
F0
sg811
S''
sg812
I0
sg793
S''
sg813
(lp891
sg815
F0
sg816
I00
sg790
F0
sg817
I1
sg818
S''
sg819
I00
sg820
I00
sS'scorePerHit'
p892
I0
sg822
S''
sg823
I00
sg824
I00
sg825
S'"lights": [\n\n{\n    "lightID": -1,\n    "kind": kLightKindRect,\n    "enabled": True,\n    "flags": kLightFlagBlink,\n    "positionX": 0.5,\n    "positionY": 1,\n    "width": 15,\n    "height": 5,\n    "opacity": 0,\n    "power": 0.0,\n},\n\n],\n'
p893
sg821
I0
sS'topImageWidth'
p894
I0
sS'z'
F0
sg828
F10
sg826
I00
sa(dp895
g767
F0
sg768
F1028
sg769
S''
sg770
S''
sg771
I255
sg772
S'pong'
p896
sg773
S'255,255,255'
p897
sg775
F0
sg822
S''
sg776
F0
sg777
S'{aiLevel=0;}'
p898
sg778
F27
sg779
I01
sg780
F0
sg781
I00
sg782
I00
sg783
S'0,0,0'
p899
sg785
I00
sg786
F0
sg787
S'0,0,0'
p900
sg789
F0
sg790
F946
sg791
g72
sg792
I00
sg793
S''
sg794
I00
sg795
S''
sg796
I255
sg797
S''
sg798
F2203
sg799
F946
sg800
g46
sg801
I00
sg802
F0
sg803
F0
sg804
S''
sg805
S'orangekid'
p901
sg807
I16
sg808
S''
sg809
I00
sg810
F0
sg811
S''
sg812
I0
sg813
(lp902
sg815
F0
sg816
I00
sg817
I1
sg818
S''
sg819
I00
sg820
I00
sg821
I0
sS'kPaddleFlagNoPositionLimit'
p903
I00
sg823
I00
sg824
I00
sg825
S'"lights": [\n\n{\n    "lightID": -1,\n    "kind": kLightKindRect,\n    "enabled": True,\n    "flags": kLightFlagBlink,\n    "positionX": 0.5,\n    "positionY": 0.5,\n    "width": 5,\n    "height": 5,\n    "opacity": 0,\n    "power": 0.0,\n},\n\n],\n'
p904
sg826
I00
sg827
F0
sS'z'
F0
sg828
F10
sa(dp905
g767
F0
sg768
F1118
sg769
S''
sg770
S''
sg771
I255
sg772
S'pong'
p906
sg773
S'255,255,255'
p907
sg775
F0
sg822
S''
sg776
F0
sg777
S'{aiLevel=0;}'
p908
sg778
F27
sg779
I01
sg780
F0
sg781
I00
sg782
I00
sg783
S'0,0,0'
p909
sg785
I00
sg786
F0
sg787
S'0,0,0'
p910
sg789
F0
sg790
F1026
sg791
g72
sg792
I00
sg793
S''
sg794
I00
sg795
S''
sg796
I255
sg797
S''
sg798
F2213
sg799
F1118
sg800
g46
sg801
I00
sg802
F0
sg803
F0
sg804
S''
sg805
S'orangekid'
p911
sg807
I16
sg808
S''
sg809
I00
sg810
F0
sg811
S''
sg812
I0
sg813
(lp912
sg815
F0
sg816
I00
sg817
I1
sg818
S''
sg819
I00
sg820
I00
sg821
I0
sS'kPaddleFlagNoPositionLimit'
p913
I00
sg823
I00
sg824
I00
sg825
S'"lights": [\n\n{\n    "lightID": -1,\n    "kind": kLightKindRect,\n    "enabled": True,\n    "flags": kLightFlagBlink,\n    "positionX": 0.5,\n    "positionY": 0.5,\n    "width": 5,\n    "height": 5,\n    "opacity": 0,\n    "power": 0.0,\n},\n\n],\n'
p914
sg826
I00
sg827
F0
sS'z'
F0
sg828
F10
sa(dp915
g767
F0
sg768
F1234
sg769
S''
sg770
S''
sg771
I255
sg772
S'pong'
p916
sg773
S'255,255,255'
p917
sg775
F0
sg822
S''
sg776
F0
sg777
S'{aiLevel=0;}'
p918
sg778
F27
sg779
I01
sg780
F0
sg781
I00
sg782
I00
sg783
S'0,0,0'
p919
sg785
I00
sg786
F0
sg787
S'0,0,0'
p920
sg789
F0
sg790
F1093
sg791
g72
sg792
I00
sg793
S''
sg794
I00
sg795
S''
sg796
I255
sg797
S''
sg798
F2223
sg799
F1234
sg800
g46
sg801
I00
sg802
F0
sg803
F0
sg804
S''
sg805
S'orangekid'
p921
sg807
I16
sg808
S''
sg809
I00
sg810
F0
sg811
S''
sg812
I0
sg813
(lp922
sg815
F0
sg816
I00
sg817
I1
sg818
S''
sg819
I00
sg820
I00
sg821
I0
sS'kPaddleFlagNoPositionLimit'
p923
I00
sg823
I00
sg824
I00
sg825
S''
sg826
I00
sg827
F0
sS'z'
F0
sg828
F10
sa(dp924
g767
F0
sg768
F0
sg769
S''
sg827
F0
sg770
S''
sg771
I255
sg772
S'pong'
p925
sg785
I00
sg775
F0
sg776
F0
sg777
S''
sg778
F100
sg779
I01
sS'audioMoveSoundTimeout'
p926
F0
sS'topImagePositionX'
p927
F0
sS'topImagePositionY'
p928
F0
sg781
I00
sg782
I00
sS'topImageAnchorX'
p929
F0
sS'topImageAnchorY'
p930
F0
sg773
S'255,255,255'
p931
sS'topImageName'
p932
S''
sg786
F0
sg787
S'0,0,0'
p933
sg789
F0
sg783
S'0,0,0'
p934
sg791
S'paddleHit.caf'
p935
sg792
I00
sS'topImageOpacity'
p936
I0
sS'kPaddleFlagNoPositionLimit'
p937
I00
sg794
I00
sg795
S''
sg796
I255
sg797
S''
sg798
F1390
sg799
F1040
sg800
S'paddleMove.caf'
p938
sg780
F0
sS'topImageHeight'
p939
I0
sg801
I00
sg802
F0
sg803
F0
sg804
S''
sg805
S'orangekid'
p940
sS'topImageRotation'
p941
F0
sg807
I16
sg808
S''
sg809
I00
sg810
F0
sg811
S''
sg812
I0
sg793
S''
sg813
(lp942
sg815
F0
sg816
I00
sg790
F0
sg817
I1
sg818
S''
sg819
I00
sg820
I00
sS'scorePerHit'
p943
I0
sg822
S''
sg823
I00
sg824
I00
sg825
S'"lights": [\n\n{\n    "lightID": -1,\n    "kind": kLightKindRect,\n    "enabled": True,\n    "flags": kLightFlagBlink,\n    "positionX": 0.5,\n    "positionY": 0.5,\n    "width": 5,\n    "height": 15,\n    "opacity": 0,\n    "power": 0.0,\n},\n\n],\n'
p944
sg821
I0
sS'topImageWidth'
p945
I0
sS'z'
F0
sg828
F10
sg826
I00
sa(dp946
g767
F0
sg768
F0
sg769
S''
sg827
F0
sg770
S''
sg771
I255
sg772
S'pong'
p947
sg785
I00
sg775
F0
sg776
F0
sg777
S''
sg778
F100
sg779
I01
sS'audioMoveSoundTimeout'
p948
F0
sS'topImagePositionX'
p949
F0
sS'topImagePositionY'
p950
F0
sg781
I00
sg826
I00
sg782
I00
sS'topImageAnchorX'
p951
F0
sS'topImageAnchorY'
p952
F0
sg773
S'255,255,255'
p953
sS'topImageName'
p954
S''
sg786
F0
sg787
S'0,0,0'
p955
sg789
F0
sg783
S'0,0,0'
p956
sg791
S'paddleHit.caf'
p957
sg792
I00
sS'topImageOpacity'
p958
I0
sS'kPaddleFlagNoPositionLimit'
p959
I00
sg794
I00
sg795
S''
sg796
I255
sg797
S''
sg798
F1852
sg799
F1044
sg800
S'paddleMove.caf'
p960
sg780
F0
sS'topImageHeight'
p961
I0
sg801
I00
sg802
F0
sg803
F0
sg804
S''
sg805
S'orangekid'
p962
sS'topImageRotation'
p963
F0
sg807
I16
sg808
S''
sg809
I00
sg810
F0
sg811
S''
sg812
I0
sg793
S''
sg813
(lp964
sg815
F0
sg816
I00
sg790
F0
sg817
I1
sg818
S''
sg819
I00
sg820
I00
sS'scorePerHit'
p965
I0
sg822
S''
sg823
I00
sg824
I00
sg825
S'"lights": [\n\n{\n    "lightID": -1,\n    "kind": kLightKindRect,\n    "enabled": True,\n    "flags": kLightFlagBlink,\n    "positionX": 0.7,\n    "positionY": 0.1,\n    "width": 5,\n    "height": 5,\n    "opacity": 0,\n    "power": 0.0,\n},\n\n],\n'
p966
sg821
I0
sS'topImageWidth'
p967
I0
sS'z'
F0
sg828
F10
sS'kPaddleFlagIsGlobal'
p968
I00
sa(dp969
g13
F0
sg14
F0
sg15
S''
sg75
F0
sg16
S''
sg17
S'pong'
p970
sg30
I00
sg20
F0
sg21
F0
sg22
S'{validSides=10;}'
p971
sg23
F10
sg24
I01
sS'audioMoveSoundTimeout'
p972
F0
sS'topImagePositionX'
p973
F0
sS'topImagePositionY'
p974
F0
sg26
I00
sg27
I00
sS'topImageAnchorX'
p975
F0
sS'topImageAnchorY'
p976
F0
sg18
S'255,255,255'
p977
sS'topImageName'
p978
S''
sg31
F0
sg32
S'0,0,0'
p979
sg34
F0
sg28
S'0,0,0'
p980
sg36
S''
sg37
I00
sS'topImageOpacity'
p981
I0
sS'kPaddleFlagNoPositionLimit'
p982
I00
sg39
I00
sg40
S''
sg41
I255
sg42
I255
sg43
F769
sg44
F1630
sg45
S'paddleMove.caf'
p983
sg25
F0
sS'topImageHeight'
p984
I0
sg47
I00
sg48
F0
sg49
F0
sg50
S''
sg51
S'orangekid'
p985
sS'topImageRotation'
p986
F0
sg53
I16
sg54
S''
sg55
I00
sg56
F0
sg57
S''
sg58
I0
sg38
S''
sg59
(lp987
sg64
F0
sg62
I00
sg35
F0
sg63
I1
sg61
S''
sg65
I00
sg66
I00
sS'scorePerHit'
p988
I0
sg411
S''
sg69
I00
sg70
I00
sg71
S'paddleHit.caf'
p989
sg73
S'"lights": [\n\n{\n    "lightID": -1,\n    "kind": kLightKindRect,\n    "enabled": True,\n    "flags": kLightFlagBlink,\n    "positionX": 0.5,\n    "positionY": 0.5,\n    "width": 30,\n    "height": 7,\n    "opacity": 0,\n    "power": 0.0,\n},\n\n],\n'
p990
sg67
I0
sS'topImageWidth'
p991
I0
sS'z'
F0
sg76
F100
sg74
I00
sa(dp992
g13
F0
sg14
F0
sg15
S''
sg75
F0
sg16
S''
sg17
S'pong'
p993
sg30
I00
sg20
F0
sg465
S''
sg21
F0
sg22
S''
sg23
F100
sg24
I01
sS'audioMoveSoundTimeout'
p994
F0
sS'topImagePositionX'
p995
F0
sS'topImagePositionY'
p996
F0
sg26
I00
sg27
I00
sS'topImageAnchorX'
p997
F0
sS'topImageAnchorY'
p998
F0
sg18
S'255,255,255'
p999
sS'topImageName'
p1000
S''
sg31
F0
sg32
S'0,0,0'
p1001
sg34
F0
sg28
S'0,0,0'
p1002
sg36
S''
sg37
I00
sS'topImageOpacity'
p1003
I0
sg39
I00
sg40
S''
sg41
I255
sg42
I255
sg43
F1406
sg44
F411
sg45
S'paddleMove.caf'
p1004
sg25
F0
sS'topImageHeight'
p1005
I0
sg47
I00
sg48
F0
sg49
F0
sg50
S''
sg51
S'orangekid'
p1006
sS'topImageRotation'
p1007
F0
sg53
I16
sg54
S''
sg55
I00
sg56
F0
sg57
S''
sg58
I0
sg38
S''
sg59
(lp1008
sg64
F0
sg62
I00
sg35
F0
sg63
I1
sg61
S''
sg65
I00
sg66
I00
sS'scorePerHit'
p1009
I0
sS'kPaddleFlagNoPositionLimit'
p1010
I00
sg69
I00
sg70
I00
sg71
S'paddleHit.caf'
p1011
sg73
S'"lights": [\n\n{\n    "lightID": -1,\n    "kind": kLightKindRect,\n    "enabled": True,\n    "flags": kLightFlagBlink,\n    "positionX": 0.5,\n    "positionY": 0.5,\n    "width": 5,\n    "height": 5,\n    "opacity": 0,\n\n    "power": 0.0,\n},\n\n],\n'
p1012
sg67
I0
sS'topImageWidth'
p1013
I0
sS'z'
F0
sg76
F10
sg74
I00
sa(dp1014
g767
F0
sg768
F0
sg769
S''
sg827
F0
sg770
S''
sg771
I255
sg772
S'pong'
p1015
sg785
I00
sg775
F0
sg822
S''
sg776
F0
sg777
S''
sg778
F100
sg779
I01
sS'audioMoveSoundTimeout'
p1016
F0
sS'topImagePositionX'
p1017
F0
sS'topImagePositionY'
p1018
F0
sg781
I00
sg782
I00
sS'topImageAnchorX'
p1019
F0
sS'topImageAnchorY'
p1020
F0
sg773
S'255,255,255'
p1021
sS'topImageName'
p1022
S''
sg786
F0
sg787
S'0,0,0'
p1023
sg789
F0
sg783
S'0,0,0'
p1024
sg791
S'paddleHit.caf'
p1025
sg792
I00
sS'topImageOpacity'
p1026
I0
sg794
I00
sg795
S''
sg796
I255
sg797
S''
sg798
F1665
sg799
F413
sg800
S'paddleMove.caf'
p1027
sg780
F0
sS'topImageHeight'
p1028
I0
sg801
I00
sg802
F0
sg803
F0
sg804
S''
sg805
S'orangekid'
p1029
sS'topImageRotation'
p1030
F0
sg807
I16
sg808
S''
sg809
I00
sg810
F0
sg811
S''
sg812
I0
sg793
S''
sg813
(lp1031
sg815
F0
sg816
I00
sg790
F0
sg817
I1
sg818
S''
sg819
I00
sg820
I00
sS'scorePerHit'
p1032
I0
sS'kPaddleFlagNoPositionLimit'
p1033
I00
sg823
I00
sg824
I00
sg825
S'"lights": [\n\n{\n    "lightID": -1,\n    "kind": kLightKindRect,\n    "enabled": True,\n    "flags": kLightFlagBlink,\n    "positionX": 0.1,\n    "positionY": 0.9,\n    "width": 5,\n    "height": 5,\n    "opacity": 0,\n\n    "power": 0.0,\n},\n\n],\n'
p1034
sg821
I0
sS'topImageWidth'
p1035
I0
sS'z'
F0
sg828
F10
sg826
I00
sa(dp1036
g13
F0
sg14
F0
sg15
S''
sg75
F0
sg16
S''
sg17
S'pong'
p1037
sg30
I00
sg20
F0
sg21
F0
sg22
S'{validSides=10;}'
p1038
sg23
F10
sg24
I01
sS'audioMoveSoundTimeout'
p1039
F0
sS'topImagePositionX'
p1040
F0
sS'topImagePositionY'
p1041
F0
sg26
I00
sg27
I00
sS'topImageAnchorX'
p1042
F0
sS'topImageAnchorY'
p1043
F0
sg18
S'255,255,255'
p1044
sS'topImageName'
p1045
S''
sg31
F0
sg32
S'0,0,0'
p1046
sg34
F0
sg28
S'0,0,0'
p1047
sg36
S''
sg37
I00
sS'topImageOpacity'
p1048
I0
sS'kPaddleFlagNoPositionLimit'
p1049
I00
sg39
I00
sg40
S''
sg41
I255
sg42
I255
sg43
F1860
sg44
F-1
sg45
S'paddleMove.caf'
p1050
sg25
F0
sS'topImageHeight'
p1051
I0
sg47
I00
sg48
F0
sg49
F0
sg50
S''
sg51
S'orangekid'
p1052
sS'topImageRotation'
p1053
F0
sg53
I16
sg54
S''
sg55
I00
sg56
F0
sg57
S''
sg58
I0
sg38
S''
sg59
(lp1054
sg64
F0
sg62
I00
sg35
F0
sg63
I1
sg61
S''
sg65
I00
sg66
I00
sS'scorePerHit'
p1055
I0
sg411
S''
sg69
I00
sg70
I00
sg71
S'paddleHit.caf'
p1056
sg73
S'"lights": [\n\n{\n    "lightID": -1,\n    "kind": kLightKindRect,\n    "enabled": True,\n    "flags": kLightFlagBlink,\n    "positionX": 0.5,\n    "positionY": 0.5,\n    "width": 20,\n    "height": 5,\n    "opacity": 0,\n\n    "power": 0.0,\n},\n\n],\n'
p1057
sg67
I0
sS'topImageWidth'
p1058
I0
sS'z'
F0
sg76
F100
sg74
I00
sa(dp1059
g13
F0
sg14
F0
sg15
S''
sg75
F0
sg16
S''
sg17
S'pong'
p1060
sg30
I00
sg20
F0
sg411
S''
sg21
F0
sg22
S'{validSides=10;}'
p1061
sg23
F10
sg24
I01
sS'audioMoveSoundTimeout'
p1062
F0
sS'topImagePositionX'
p1063
F0
sS'topImagePositionY'
p1064
F0
sg26
I00
sg27
I00
sS'topImageAnchorX'
p1065
F0
sS'topImageAnchorY'
p1066
F0
sg18
S'255,255,255'
p1067
sS'topImageName'
p1068
S''
sg31
F0
sg32
S'0,0,0'
p1069
sg34
F0
sg28
S'0,0,0'
p1070
sg36
S''
sg37
I00
sS'topImageOpacity'
p1071
I0
sg39
I00
sg40
S''
sg41
I255
sg42
I255
sg43
F1862
sg44
F-300
sg45
S'paddleMove.caf'
p1072
sg25
F0
sS'topImageHeight'
p1073
I0
sg47
I00
sg48
F0
sg49
F0
sg50
S''
sg51
S'orangekid'
p1074
sS'topImageRotation'
p1075
F0
sg53
I16
sg54
S''
sg55
I00
sg56
F0
sg57
S''
sg58
I0
sg38
S''
sg59
(lp1076
sg64
F0
sg62
I00
sg35
F0
sg63
I1
sg61
S''
sg65
I00
sg66
I00
sS'scorePerHit'
p1077
I0
sS'kPaddleFlagNoPositionLimit'
p1078
I00
sg69
I00
sg70
I00
sg71
S'paddleHit.caf'
p1079
sg73
S'"lights": [\n\n{\n    "lightID": -1,\n    "kind": kLightKindRect,\n    "enabled": True,\n    "flags": kLightFlagBlink,\n    "positionX": 0.5,\n    "positionY": 0.5,\n    "width": 20,\n    "height": 5,\n    "opacity": 0,\n\n    "power": 0.0,\n},\n\n],\n'
p1080
sg67
I0
sS'topImageWidth'
p1081
I0
sS'z'
F0
sg76
F100
sg74
I00
sa(dp1082
g767
F0
sg768
F0
sg769
S''
sg770
S''
sg771
I255
sg772
S''
sg773
S'255,0,0'
p1083
sg775
F0
sg776
F0
sg777
S''
sg778
F21
sg779
I01
sg780
F0
sg781
I00
sg782
I00
sg783
S'0,0,0'
p1084
sg785
I00
sg786
F0
sg787
S'0,0,0'
p1085
sg789
F0
sg790
F0
sg791
S'bell.caf'
p1086
sg792
I00
sg793
S''
sS'kPaddleFlagNoPositionLimit'
p1087
I00
sg794
I00
sg795
S''
sg796
I255
sg797
S''
sg798
F1729
sg799
F-565
sg800
S''
sg801
I00
sg802
F0
sg803
F0
sg804
S''
sg805
S'orangekid'
p1088
sg807
I16
sg808
S''
sg809
I00
sg810
F0
sg811
S'function T:onHit (heroIndex, side, x, y)\n\tscreen:onSwitchHit (self)\n\tPaddle.onHit (self, heroIndex, side, x, y)\nend\n'
p1089
sg812
I0
sg813
(lp1090
sg815
F0
sg816
I00
sg817
I1
sg818
S's1'
p1091
sg819
I00
sg820
I00
sg821
I0
sg822
S''
sg823
I00
sg824
I00
sg825
S'"lights": [\n\n{\n    "lightID": -1,\n    "kind": kLightKindRect,\n    "enabled": True,\n    "flags": kLightFlagBlink,\n    "positionX": 0.5,\n    "positionY": 0.5,\n    "width": 9,\n    "height": 9,\n    "opacity": 0,\n    "power": 0.0,\n},\n\n],\n'
p1092
sg826
I00
sg827
F0
sS'z'
F0
sg828
F20
sa(dp1093
g767
F0
sg768
F0
sg769
S''
sg770
S''
sg771
I255
sg772
S''
sg773
S'255,0,0'
p1094
sg775
F0
sg776
F0
sg777
S''
sg778
F21
sg779
I01
sg780
F0
sg781
I00
sg782
I00
sg783
S'0,0,0'
p1095
sg785
I00
sg786
F0
sg787
S'0,0,0'
p1096
sg789
F0
sg790
F0
sg791
S'bell.caf'
p1097
sg792
I00
sg793
S''
sS'kPaddleFlagNoPositionLimit'
p1098
I00
sg794
I00
sg795
S''
sg796
I255
sg797
S''
sg798
F1894
sg799
F-565
sg800
S''
sg801
I00
sg802
F0
sg803
F0
sg804
S''
sg805
S'orangekid'
p1099
sg807
I16
sg808
S''
sg809
I00
sg810
F0
sg811
S'function T:onHit (heroIndex, side, x, y)\n\tscreen:onSwitchHit (self)\n\tPaddle.onHit (self, heroIndex, side, x, y)\nend\n'
p1100
sg812
I0
sg813
(lp1101
sg815
F0
sg816
I00
sg817
I1
sg818
S's2'
p1102
sg819
I00
sg820
I00
sg821
I0
sg822
S''
sg823
I00
sg824
I00
sg825
S'"lights": [\n\n{\n    "lightID": -1,\n    "kind": kLightKindRect,\n    "enabled": True,\n    "flags": kLightFlagBlink,\n    "positionX": 0.5,\n    "positionY": 0.5,\n    "width": 9,\n    "height": 9,\n    "opacity": 0,\n    "power": 0.0,\n},\n\n],\n'
p1103
sg826
I00
sg827
F0
sS'z'
F0
sg828
F20
sa(dp1104
g767
F0
sg768
F0
sg769
S''
sg770
S''
sg771
I255
sg772
S''
sg785
I00
sg775
F0
sg776
F0
sg777
S''
sg778
F21
sg779
I01
sS'audioMoveSoundTimeout'
p1105
F0
sS'topImagePositionX'
p1106
F0
sS'topImagePositionY'
p1107
F0
sg781
I00
sg782
I00
sS'topImageAnchorX'
p1108
F0
sS'topImageAnchorY'
p1109
F0
sg773
S'255,0,0'
p1110
sS'topImageName'
p1111
S''
sg786
F0
sg787
S'0,0,0'
p1112
sg789
F0
sg783
S'0,0,0'
p1113
sg791
S'bell.caf'
p1114
sg792
I00
sS'topImageOpacity'
p1115
I0
sS'kPaddleFlagNoPositionLimit'
p1116
I00
sg794
I00
sg795
S''
sg796
I255
sg797
S''
sg798
F2061
sg799
F-565
sg800
S''
sg780
F0
sS'topImageHeight'
p1117
I0
sg801
I00
sg802
F0
sg803
F0
sg804
S''
sg805
S'orangekid'
p1118
sS'topImageRotation'
p1119
F0
sg807
I16
sg808
S''
sg809
I00
sg810
F0
sg811
S'function T:onHit (heroIndex, side, x, y)\n\tscreen:onSwitchHit (self)\n\tPaddle.onHit (self, heroIndex, side, x, y)\nend\n'
p1120
sg812
I0
sg793
S''
sg813
(lp1121
sg815
F0
sg816
I00
sg790
F0
sg817
I1
sS'z'
F0
sg818
S's3'
p1122
sg819
I00
sg820
I00
sg821
I0
sg822
S''
sg823
I00
sg824
I00
sg825
S''
sg826
I00
sg827
F0
sS'topImageWidth'
p1123
I0
sg828
F20
sa(dp1124
g13
F0
sg14
F0
sg15
S''
sg16
S''
sg17
S'pong'
p1125
sg18
S'255,255,255'
p1126
sg20
F0
sg21
F0
sg22
S'{validSides=10;}'
p1127
sg23
F10
sg24
I01
sg25
F0
sg26
I00
sg27
I00
sg28
S'0,0,0'
p1128
sg30
I00
sg31
F0
sg32
S'0,0,0'
p1129
sg34
F0
sg35
F0
sg36
S''
sg37
I00
sg38
S''
sS'kPaddleFlagNoPositionLimit'
p1130
I00
sg39
I00
sg40
S''
sg41
I255
sg42
I255
sg43
F1937
sg44
F-497
sg45
S'paddleMove.caf'
p1131
sg47
I00
sg48
F0
sg49
F0
sg50
S''
sg51
S'orangekid'
p1132
sg53
I16
sg54
S''
sg55
I00
sg56
F0
sg57
S''
sg58
I0
sg59
(lp1133
sg61
S''
sg62
I00
sg63
I1
sg64
F0
sg65
I00
sg66
I00
sg67
I0
sg411
S''
sg69
I00
sg70
I00
sg71
S'paddleHit.caf'
p1134
sg73
S''
sg74
I00
sg75
F0
sS'z'
F0
sg76
F23
sa(dp1135
g13
F2122
sg14
F0
sg15
S''
sg16
S''
sg17
S''
sg30
I00
sg20
F0
sg411
S''
sg21
F0
sg22
S''
sg23
F10
sg24
I01
sS'audioMoveSoundTimeout'
p1136
F0
sS'topImagePositionX'
p1137
F0
sS'topImagePositionY'
p1138
F0
sg26
I00
sg27
I00
sS'topImageAnchorX'
p1139
F0
sS'topImageAnchorY'
p1140
F0
sg18
S'255,255,255'
p1141
sS'topImageName'
p1142
S''
sg31
F0
sg32
S'0,0,0'
p1143
sg34
F1673
sg28
S'0,0,0'
p1144
sg36
S''
sg37
I00
sS'topImageOpacity'
p1145
I0
sg39
I00
sg40
S''
sg41
I255
sg42
I255
sg43
F1904
sg44
F-427
sg45
S'paddleMove.caf'
p1146
sg25
F0
sS'topImageHeight'
p1147
I0
sg47
I00
sg48
F0
sg49
F0
sg50
S''
sg51
S'orangekid'
p1148
sS'topImageRotation'
p1149
F0
sg53
I16
sg54
S''
sg55
I00
sg56
F40
sg57
S''
sg58
I0
sg38
S''
sg59
(lp1150
sg64
F0
sg62
I00
sg35
F0
sg63
I1
sS'z'
F0
sg61
S'smallSwitchesDefender'
p1151
sg65
I00
sg66
I00
sg67
I0
sS'kPaddleFlagNoPositionLimit'
p1152
I00
sg69
I00
sg70
I00
sg71
S'paddleHit.caf'
p1153
sg73
S'"lights": [\n\n{\n    "lightID": -1,\n    "kind": kLightKindRect,\n    "enabled": True,\n    "flags": kLightFlagBlink,\n    "positionX": 0.5,\n    "positionY": 0.5,\n    "width": 20,\n    "height": 9,\n    "opacity": 0,\n    "power": 0.0,\n},\n\n],\n'
p1154
sg74
I00
sg75
F0
sS'topImageWidth'
p1155
I0
sg76
F23
sa(dp1156
g767
F0
sg768
F0
sg769
S''
sg770
S'T'
sg771
I255
sg772
S''
sg773
S'252,255,60'
p1157
sg775
F0
sg776
F0
sg777
S''
sg778
F21
sg779
I01
sS'audioMoveSoundTimeout'
p1158
F0
sS'topImagePositionX'
p1159
F0
sS'topImagePositionY'
p1160
F0
sg781
I00
sg782
I00
sS'kPaddleFlagIsGlobal'
p1161
I00
sS'topImageAnchorX'
p1162
F0
sS'topImageAnchorY'
p1163
F0
sg785
I00
sS'topImageName'
p1164
S''
sg786
F0
sg787
S'237,122,35'
p1165
sg789
F0
sg783
S'0,0,0'
p1166
sg791
S'/powerupTurbo.caf'
p1167
sg792
I00
sS'topImageOpacity'
p1168
I0
sS'kPaddleFlagNoPositionLimit'
p1169
I00
sg794
I00
sg795
S''
sg796
I255
sg797
S''
sg798
F-462
sg799
F563
sg800
S''
sg780
F0
sS'topImageHeight'
p1170
I0
sg801
I00
sg802
F0
sg803
F0
sg804
S''
sg805
S'orangekid'
p1171
sS'topImageRotation'
p1172
F0
sg807
I16
sg808
S''
sg809
I00
sg810
F0
sg811
S'function T:setup ()\n\tPaddle.setup (self)\n\t\n\tself.turboTimeIncrement = 5\n\tself:setLabel (string.format ("%d", self.turboTimeIncrement))\nend\n\nfunction T:onHit (heroIndex, side, x, y)\n\tgame.levelAddTurboAvailableSeconds (self.turboTimeIncrement)\n\tPaddle.onHit (self, heroIndex, side, x, y)\n\tself:setEnabled (false)\n\tscreen:stopMessagesScript ("turboChargeMessages")\n\tgame.hudShowZoomingText ("Turbo", "")\nend\n'
p1173
sg812
I0
sg793
S''
sg813
(lp1174
sg818
S'turboCharge'
p1175
sg816
I00
sg790
F0
sg817
I1
sS'z'
F0
sg815
F0
sg819
I00
sg820
I00
sg821
I1
sg822
S''
sg823
I00
sg824
I00
sg825
S'"lights": [\n\n{\n    "lightID": -1,\n    "kind": kLightKindRect,\n    "enabled": True,\n    "flags": kLightFlagBlink,\n    "positionX": 0.5,\n    "positionY": 0.5,\n    "width": 9,\n    "height": 9,\n    "opacity": 0,\n    "power": 0.0,\n},\n\n],\n'
p1176
sS'scorePerHit'
p1177
I0
sg827
F0
sS'topImageWidth'
p1178
I0
sg828
F20
sg826
I00
sa(dp1179
S'maxX'
p1180
F0
sS'maxY'
p1181
F0
sS'audioClickSound'
p1182
S'button1.caf'
p1183
sS'labelText'
p1184
S'1'
sS'labelOpacity'
p1185
I255
sS'aiDefensiveKind'
p1186
S''
sS'kPaddleFlagScriptOnSideToggled'
p1187
I00
sS'energy'
p1188
F0
sS'elasticity'
p1189
F0
sS'aiDefensiveConfig'
p1190
S''
sS'height'
p1191
F40
sS'kPaddleFlagEnabled'
p1192
I01
sS'audioMoveSoundTimeout'
p1193
F0
sS'topImagePositionX'
p1194
F0
sS'topImagePositionY'
p1195
F0
sS'kPaddleFlagScriptHandleTouches'
p1196
I01
sS'kPaddleFlagScriptOnExit'
p1197
I00
sS'topImageAnchorX'
p1198
F0
sS'topImageAnchorY'
p1199
F0
sS'colorColor1'
p1200
S'255,18,243'
p1201
sS'topImageName'
p1202
S''
sS'proximityAccelerationY'
p1203
F0
sS'colorColor2'
p1204
S'188,18,135'
p1205
sS'minX'
p1206
F0
sS'labelColor'
p1207
S'0,0,0'
p1208
sS'kPaddleFlagCollisionDisabled'
p1209
I00
sS'kPaddleFlagScriptOnEnter'
p1210
I00
sS'topImageOpacity'
p1211
I0
sS'kPaddleFlagNoPositionLimit'
p1212
I00
sS'kPaddleFlagBlockTouches'
p1213
I00
sS'audioInSound'
p1214
S''
sS'colorOpacity'
p1215
I255
sS'aiOffensiveConfig'
p1216
S''
sS'positionX'
p1217
F1474
sS'positionY'
p1218
F1000
sS'audioMoveSound'
p1219
S''
sS'proximityAccelerationX'
p1220
F0
sS'topImageHeight'
p1221
I0
sS'kPaddleFlagScriptOnHeroInProxymityArea'
p1222
I00
sS'proximityWidth'
p1223
F0
sS'colorTintToDuration'
p1224
F1
sS'audioSoundLoop'
p1225
S''
sS'labelFont'
p1226
S'orangekid'
p1227
sS'topImageRotation'
p1228
F0
sS'labelFontSize'
p1229
I32
sS'audioOutSound'
p1230
S''
sS'kPaddleFlagIsInvisible'
p1231
I00
sS'speedX'
p1232
F0
sS'scripts'
p1233
S'\nfunction T:onClick ()\n\tscreen:buttonClicked (self)\nend\n\nfunction T:onHit (heroIndex, side, x, y)\n\tPaddle.onHit (self, heroIndex, side, x, y)\n\tscreen:buttonHit (self)\nend\n'
p1234
sS'proximityMode'
p1235
I0
sS'aiOffensiveKind'
p1236
S''
sS'lights'
p1237
(lp1238
sS'proximityHeight'
p1239
F0
sS'kPaddleFlagSelected'
p1240
I00
sS'minY'
p1241
F0
sS'kind'
p1242
I1
sS'z'
F0
sS'name'
p1243
S'b1'
p1244
sS'kPaddleFlagIsButton'
p1245
I01
sS'kPaddleFlagScriptUpdate'
p1246
I00
sS'colorMode'
p1247
I1
sS'textureName'
p1248
S''
sS'kPaddleFlagScriptApplyProximityInfluenceToHero'
p1249
I00
sS'audioHitSound'
p1250
S'/gong.caf'
p1251
sS'extensions'
p1252
S'"lights": [\n\n{\n    "lightID": -1,\n    "kind": kLightKindRect,\n    "enabled": True,\n    "flags": 0,\n    "positionX": 0.5,\n    "positionY": 0.5,\n    "width": 12,\n    "height": 12,\n    "opacity": 0,\n    "power": 0.0,\n},\n\n],\n'
p1253
sS'kPaddleFlagOffensiveSide'
p1254
I00
sS'speedY'
p1255
F0
sS'topImageWidth'
p1256
I0
sS'width'
p1257
F40
sa(dp1258
g1180
F0
sg1181
F0
sg1182
S'button1.caf'
p1259
sg1184
S'2'
sg1185
I255
sg1186
S''
sg1187
I00
sg1188
F0
sg1189
F0
sg1190
S''
sg1191
F40
sg1192
I01
sS'audioMoveSoundTimeout'
p1260
F0
sS'topImagePositionX'
p1261
F0
sS'topImagePositionY'
p1262
F0
sg1196
I01
sg1197
I00
sS'topImageAnchorX'
p1263
F0
sS'topImageAnchorY'
p1264
F0
sg1200
S'255,18,243'
p1265
sS'topImageName'
p1266
S''
sg1203
F0
sg1204
S'188,18,135'
p1267
sg1206
F0
sg1207
S'0,0,0'
p1268
sg1209
I00
sg1210
I00
sS'topImageOpacity'
p1269
I0
sg1212
I00
sg1213
I00
sg1214
S''
sg1215
I255
sg1216
S''
sg1217
F1625
sg1218
F1180
sg1219
S''
sg1220
F0
sS'topImageHeight'
p1270
I0
sg1222
I00
sg1223
F0
sg1224
F1
sg1225
S''
sg1226
S'orangekid'
p1271
sS'topImageRotation'
p1272
F0
sg1229
I32
sg1230
S''
sg1231
I00
sg1232
F0
sg1233
S'\nfunction T:onClick ()\n\tscreen:buttonClicked (self)\nend\n\nfunction T:onHit (heroIndex, side, x, y)\n\tPaddle.onHit (self, heroIndex, side, x, y)\n\tscreen:buttonHit (self)\nend\n'
p1273
sg1235
I0
sg1236
S''
sg1237
(lp1274
sg1239
F0
sg1240
I00
sg1241
F0
sg1242
I1
sS'z'
F0
sg1243
S'b2'
p1275
sg1245
I01
sg1246
I00
sg1247
I1
sg1248
S''
sg1249
I00
sg1250
S'/gong.caf'
p1276
sg1252
S'"lights": [\n\n{\n    "lightID": -1,\n    "kind": kLightKindRect,\n    "enabled": True,\n    "flags": 0,\n    "positionX": 0.5,\n    "positionY": 0.5,\n    "width": 12,\n    "height": 12,\n    "opacity": 0,\n    "power": 0.0,\n},\n\n],\n'
p1277
sg1254
I00
sg1255
F0
sS'topImageWidth'
p1278
I0
sg1257
F40
sa(dp1279
g1180
F0
sg1181
F0
sg1182
S'button1.caf'
p1280
sg1184
S'3'
sg1185
I255
sg1186
S''
sg1200
S'255,18,243'
p1281
sg1188
F0
sg1189
F0
sg1190
S''
sg1191
F40
sg1192
I01
sS'audioMoveSoundTimeout'
p1282
F0
sS'topImagePositionX'
p1283
F0
sS'topImagePositionY'
p1284
F0
sg1196
I01
sg1197
I00
sS'kPaddleFlagIsGlobal'
p1285
I00
sS'topImageAnchorX'
p1286
F0
sS'topImageAnchorY'
p1287
F0
sg1187
I00
sS'topImageName'
p1288
S''
sg1203
F0
sg1204
S'188,18,135'
p1289
sg1206
F0
sg1207
S'0,0,0'
p1290
sg1209
I00
sg1210
I00
sS'topImageOpacity'
p1291
I0
sg1212
I00
sg1213
I00
sg1214
S''
sg1215
I255
sg1216
S''
sg1217
F1719
sg1218
F1051
sg1219
S''
sg1220
F0
sS'topImageHeight'
p1292
I0
sg1222
I00
sg1223
F0
sg1224
F1
sg1225
S''
sg1226
S'orangekid'
p1293
sS'topImageRotation'
p1294
F0
sg1229
I32
sg1230
S''
sg1231
I00
sg1232
F0
sg1233
S'\nfunction T:onClick ()\n\tscreen:buttonClicked (self)\nend\n\nfunction T:onHit (heroIndex, side, x, y)\n\tPaddle.onHit (self, heroIndex, side, x, y)\n\tscreen:buttonHit (self)\nend\n'
p1295
sg1235
I0
sg1236
S''
sg1237
(lp1296
sg1239
F0
sg1240
I00
sg1241
F0
sg1242
I1
sS'z'
F0
sg1243
S'b3'
p1297
sg1245
I01
sg1246
I00
sS'scorePerHit'
p1298
I0
sg1248
S''
sg1249
I00
sg1250
S'/gong.caf'
p1299
sg1252
S'"lights": [\n\n{\n    "lightID": -1,\n    "kind": kLightKindRect,\n    "enabled": True,\n    "flags": 0,\n    "positionX": 0.5,\n    "positionY": 0.5,\n    "width": 12,\n    "height": 12,\n    "opacity": 0,\n    "power": 0.0,\n},\n\n],\n'
p1300
sg1247
I1
sg1255
F0
sS'topImageWidth'
p1301
I0
sg1257
F40
sg1254
I00
sa(dp1302
S'maxX'
p1303
F0
sS'maxY'
p1304
F0
sS'audioClickSound'
p1305
S''
sS'labelText'
p1306
S''
sS'labelOpacity'
p1307
I255
sS'aiDefensiveKind'
p1308
S''
sS'kPaddleFlagScriptOnSideToggled'
p1309
I00
sS'energy'
p1310
F0
sS'elasticity'
p1311
F0
sS'aiDefensiveConfig'
p1312
S''
sS'height'
p1313
F20
sS'kPaddleFlagEnabled'
p1314
I01
sS'audioMoveSoundTimeout'
p1315
F1
sS'topImagePositionX'
p1316
F0.5
sS'topImagePositionY'
p1317
F0.5
sS'kPaddleFlagScriptHandleTouches'
p1318
I00
sS'kPaddleFlagOffensiveSide'
p1319
I00
sS'kPaddleFlagScriptOnExit'
p1320
I00
sS'topImageAnchorX'
p1321
F0.5
sS'topImageAnchorY'
p1322
F0.5
sS'colorColor1'
p1323
S'202,0,231'
p1324
sS'topImageName'
p1325
S''
sS'proximityAccelerationY'
p1326
F0
sS'colorColor2'
p1327
S'255,0,255'
p1328
sS'minX'
p1329
F0
sS'labelColor'
p1330
S'0,0,0'
p1331
sS'audioHitSound'
p1332
S''
sS'kPaddleFlagScriptOnEnter'
p1333
I00
sS'topImageOpacity'
p1334
I255
sS'kPaddleFlagNoPositionLimit'
p1335
I00
sS'kPaddleFlagBlockTouches'
p1336
I00
sS'audioInSound'
p1337
S''
sS'colorOpacity'
p1338
I255
sS'aiOffensiveConfig'
p1339
S''
sS'positionX'
p1340
F905
sS'positionY'
p1341
F53
sS'audioMoveSound'
p1342
S''
sS'proximityAccelerationX'
p1343
F0
sS'topImageHeight'
p1344
I0
sS'kPaddleFlagScriptOnHeroInProxymityArea'
p1345
I00
sS'proximityWidth'
p1346
F0
sS'colorTintToDuration'
p1347
F0.20000000000000001
sS'audioSoundLoop'
p1348
S''
sS'labelFont'
p1349
S'orangekid'
p1350
sS'topImageRotation'
p1351
F0
sS'labelFontSize'
p1352
I16
sS'audioOutSound'
p1353
S''
sS'speedY'
p1354
F0
sS'speedX'
p1355
F0
sS'scripts'
p1356
S'function T:setup ()\n\tPaddle.setup (self)\n\n\tself:fxResizeInit (10, 10, 20, 20, 70)\n\tself:fxBonusInit (1000, "/scoreBonusUp1.caf", true, self.onBonus)\nend\n\nfunction T:onBonus (side, x, y)\n\tlevel.bonusCount = level.bonusCount + 1\nend'
p1357
sS'proximityMode'
p1358
I0
sS'aiOffensiveKind'
p1359
S''
sS'lights'
p1360
(lp1361
sS'name'
p1362
S''
sS'kPaddleFlagSelected'
p1363
I00
sS'minY'
p1364
F0
sS'kind'
p1365
I1
sS'z'
F0
sS'proximityHeight'
p1366
F0
sS'kPaddleFlagIsButton'
p1367
I00
sS'kPaddleFlagScriptUpdate'
p1368
I01
sS'scorePerHit'
p1369
I150
sS'textureName'
p1370
S''
sS'kPaddleFlagScriptApplyProximityInfluenceToHero'
p1371
I00
sS'kPaddleFlagCollisionDisabled'
p1372
I00
sS'extensions'
p1373
S'"lights": [\n\n{\n    "lightID": -1,\n    "kind": kLightKindRect,\n    "enabled": True,\n    "flags": kLightFlagBlink,\n    "positionX": 0.5,\n    "positionY": 0.5,\n    "width": 9,\n    "height": 9,\n    "opacity": 0,\n    "power": 0.0,\n},\n\n],\n'
p1374
sS'colorMode'
p1375
I1
sS'kPaddleFlagIsInvisible'
p1376
I00
sS'topImageWidth'
p1377
I0
sS'width'
p1378
F20
sS'kPaddleFlagIsGlobal'
p1379
I00
sa(dp1380
g1303
F0
sg1304
F0
sg1305
S''
sg1306
S''
sg1307
I255
sg1308
S''
sg1309
I00
sg1310
F0
sg1311
F0
sg1312
S''
sg1313
F20
sg1314
I01
sg1315
F1
sg1316
F0.5
sg1317
F0.5
sg1318
I00
sg1319
I00
sg1320
I00
sg1321
F0.5
sg1322
F0.5
sg1323
S'202,0,231'
p1381
sg1325
S''
sg1326
F0
sg1327
S'255,0,255'
p1382
sg1329
F0
sg1330
S'0,0,0'
p1383
sg1332
S''
sg1333
I00
sg1334
I255
sg1376
I00
sg1335
I00
sg1336
I00
sg1337
S''
sg1338
I255
sg1339
S''
sg1340
F-451
sg1341
F346
sg1342
S''
sg1343
F0
sg1344
I0
sg1345
I00
sg1346
F0
sg1347
F0.20000000000000001
sg1348
S''
sg1349
S'orangekid'
p1384
sg1351
F0
sg1352
I16
sg1353
S''
sg1354
F0
sg1355
F0
sg1356
S'function T:setup ()\n\tPaddle.setup (self)\n\n\tself:fxResizeInit (10, 10, 20, 20, 70)\n\tself:fxBonusInit (1000, "/scoreBonusUp1.caf", true, self.onBonus)\nend\n\nfunction T:onBonus (side, x, y)\n\tlevel.bonusCount = level.bonusCount + 1\nend'
p1385
sg1358
I0
sg1359
S''
sg1360
(lp1386
sg1362
S''
sg1363
I00
sg1364
F0
sg1365
I1
sg1366
F0
sg1367
I00
sg1368
I01
sg1369
I150
sg1370
S''
sg1371
I00
sg1372
I00
sg1373
S'"lights": [\n\n{\n    "lightID": -1,\n    "kind": kLightKindRect,\n    "enabled": True,\n    "flags": kLightFlagBlink,\n    "positionX": 0.5,\n    "positionY": 0.5,\n    "width": 9,\n    "height": 9,\n    "opacity": 0,\n    "power": 0.0,\n},\n\n],\n'
p1387
sg1375
I1
sg1377
I0
sS'z'
F0
sg1378
F20
sS'kPaddleFlagIsGlobal'
p1388
I00
sa(dp1389
g1303
F0
sg1304
F0
sg1305
S''
sg1306
S''
sg1307
I255
sg1308
S''
sg1323
S'202,0,231'
p1390
sg1310
F0
sg1311
F0
sg1312
S''
sg1313
F20
sg1314
I01
sg1315
F1
sg1316
F0.5
sg1317
F0.5
sg1318
I00
sg1320
I00
sg1321
F0.5
sg1322
F0.5
sg1309
I00
sg1325
S''
sg1326
F0
sg1327
S'255,0,255'
p1391
sg1329
F0
sg1330
S'0,0,0'
p1392
sg1332
S''
sg1333
I00
sg1334
I255
sg1376
I00
sg1335
I00
sg1336
I00
sg1337
S''
sg1338
I255
sg1339
S''
sg1340
I357
sg1341
I950
sg1342
S''
sg1343
F0
sg1344
I0
sg1345
I00
sg1346
F0
sg1347
F0.20000000000000001
sg1348
S''
sg1349
S'orangekid'
p1393
sg1351
F0
sg1352
I16
sg1353
S''
sg1354
F0
sg1355
F0
sg1356
S'function T:setup ()\n\tPaddle.setup (self)\n\n\tself:fxResizeInit (10, 10, 20, 20, 70)\n\tself:fxBonusInit (1000, "/scoreBonusUp1.caf", true, self.onBonus)\nend\n\nfunction T:onBonus (side, x, y)\n\tlevel.bonusCount = level.bonusCount + 1\nend'
p1394
sg1358
I0
sg1359
S''
sg1360
(lp1395
sg1362
S''
sg1363
I00
sg1364
F0
sg1365
I1
sg1366
F0
sg1367
I00
sg1368
I01
sg1375
I1
sg1370
S''
sg1371
I00
sg1372
I00
sg1373
S''
sg1369
I150
sg1377
I0
sS'z'
F0
sg1378
F20
sg1319
I00
sa(dp1396
g1303
F0
sg1304
F0
sg1305
S''
sg1306
S''
sg1307
I255
sg1308
S''
sg1309
I00
sg1310
F0
sg1311
F0
sg1312
S''
sg1313
F20
sg1314
I01
sg1315
F1
sg1316
F0.5
sg1317
F0.5
sg1318
I00
sg1319
I00
sg1320
I00
sg1321
F0.5
sg1322
F0.5
sg1323
S'202,0,231'
p1397
sg1325
S''
sg1326
F0
sg1327
S'255,0,255'
p1398
sg1329
F0
sg1330
S'0,0,0'
p1399
sg1332
S''
sg1333
I00
sg1334
I255
sg1376
I00
sg1335
I00
sg1336
I00
sg1337
S''
sg1338
I255
sg1339
S''
sg1340
F98
sg1341
F1556
sg1342
S''
sg1343
F0
sg1344
I0
sg1345
I00
sg1346
F0
sg1347
F0.20000000000000001
sg1348
S''
sg1349
S'orangekid'
p1400
sg1351
F0
sg1352
I16
sg1353
S''
sg1354
F0
sg1355
F0
sg1356
S'function T:setup ()\n\tPaddle.setup (self)\n\n\tself:fxResizeInit (10, 10, 20, 20, 70)\n\tself:fxBonusInit (1000, "/scoreBonusUp1.caf", true, self.onBonus)\nend\n\nfunction T:onBonus (side, x, y)\n\tlevel.bonusCount = level.bonusCount + 1\nend'
p1401
sg1358
I0
sg1359
S''
sg1360
(lp1402
sg1362
S''
sg1363
I00
sg1364
F0
sg1365
I1
sg1366
F0
sg1367
I00
sg1368
I01
sg1369
I150
sg1370
S''
sg1371
I00
sg1372
I00
sg1373
S'"lights": [\n\n{\n    "lightID": -1,\n    "kind": kLightKindRect,\n    "enabled": True,\n    "flags": kLightFlagBlink,\n    "positionX": 0.5,\n    "positionY": 0.5,\n    "width": 9,\n    "height": 9,\n    "opacity": 0,\n    "power": 0.0,\n},\n\n],\n'
p1403
sg1375
I1
sg1377
I0
sS'z'
F0
sg1378
F20
sS'kPaddleFlagIsGlobal'
p1404
I00
sa(dp1405
g1303
F0
sg1304
F0
sg1305
S''
sg1306
S''
sg1307
I255
sg1308
S''
sg1309
I00
sg1310
F0
sg1311
F0
sg1312
S''
sg1313
F20
sg1314
I01
sg1315
F1
sg1316
F0.5
sg1317
F0.5
sg1318
I00
sg1319
I00
sg1320
I00
sg1321
F0.5
sg1322
F0.5
sg1323
S'202,0,231'
p1406
sg1325
S''
sg1326
F0
sg1327
S'255,0,255'
p1407
sg1329
F0
sg1330
S'0,0,0'
p1408
sg1332
S''
sg1333
I00
sg1334
I255
sg1376
I00
sg1335
I00
sg1336
I00
sg1337
S''
sg1338
I255
sg1339
S''
sg1340
F20
sg1341
F1836
sg1342
S''
sg1343
F0
sg1344
I0
sg1345
I00
sg1346
F0
sg1347
F0.20000000000000001
sg1348
S''
sg1349
S'orangekid'
p1409
sg1351
F0
sg1352
I16
sg1353
S''
sg1354
F0
sg1355
F0
sg1356
S'function T:setup ()\n\tPaddle.setup (self)\n\n\tself:fxResizeInit (10, 10, 20, 20, 70)\n\tself:fxBonusInit (1000, "/scoreBonusUp1.caf", true, self.onBonus)\nend\n\nfunction T:onBonus (side, x, y)\n\tlevel.bonusCount = level.bonusCount + 1\nend'
p1410
sg1358
I0
sg1359
S''
sg1360
(lp1411
sg1362
S''
sg1363
I00
sg1364
F0
sg1365
I1
sg1366
F0
sg1367
I00
sg1368
I01
sg1369
I150
sg1370
S''
sg1371
I00
sg1372
I00
sg1373
S'"lights": [\n\n{\n    "lightID": -1,\n    "kind": kLightKindRect,\n    "enabled": True,\n    "flags": kLightFlagBlink,\n    "positionX": 0.5,\n    "positionY": 0.5,\n    "width": 9,\n    "height": 9,\n    "opacity": 0,\n    "power": 0.0,\n},\n\n],\n'
p1412
sg1375
I1
sg1377
I0
sS'z'
F0
sg1378
F20
sS'kPaddleFlagIsGlobal'
p1413
I00
sa(dp1414
g1303
F0
sg1304
F0
sg1305
S''
sg1306
S''
sg1307
I255
sg1308
S''
sg1309
I00
sg1310
F0
sg1311
F0
sg1312
S''
sg1313
F20
sg1314
I01
sg1315
F1
sg1316
F0.5
sg1317
F0.5
sg1318
I00
sg1319
I00
sg1320
I00
sg1321
F0.5
sg1322
F0.5
sg1323
S'202,0,231'
p1415
sg1325
S''
sg1326
F0
sg1327
S'255,0,255'
p1416
sg1329
F0
sg1330
S'0,0,0'
p1417
sg1332
S''
sg1333
I00
sg1334
I255
sg1376
I00
sg1335
I00
sg1336
I00
sg1337
S''
sg1338
I255
sg1339
S''
sg1340
F1150
sg1341
F1497
sg1342
S''
sg1343
F0
sg1344
I0
sg1345
I00
sg1346
F0
sg1347
F0.20000000000000001
sg1348
S''
sg1349
S'orangekid'
p1418
sg1351
F0
sg1352
I16
sg1353
S''
sg1354
F0
sg1355
F0
sg1356
S'function T:setup ()\n\tPaddle.setup (self)\n\n\tself:fxResizeInit (10, 10, 20, 20, 70)\n\tself:fxBonusInit (1000, "/scoreBonusUp1.caf", true, self.onBonus)\nend\n\nfunction T:onBonus (side, x, y)\n\tlevel.bonusCount = level.bonusCount + 1\nend'
p1419
sg1358
I0
sg1359
S''
sg1360
(lp1420
sg1362
S''
sg1363
I00
sg1364
F0
sg1365
I1
sg1366
F0
sg1367
I00
sg1368
I01
sg1369
I150
sg1370
S''
sg1371
I00
sg1372
I00
sg1373
S'"lights": [\n\n{\n    "lightID": -1,\n    "kind": kLightKindRect,\n    "enabled": True,\n    "flags": kLightFlagBlink,\n    "positionX": 0.5,\n    "positionY": 0.5,\n    "width": 9,\n    "height": 9,\n    "opacity": 0,\n    "power": 0.0,\n},\n\n],\n'
p1421
sg1375
I1
sg1377
I0
sS'z'
F0
sg1378
F20
sS'kPaddleFlagIsGlobal'
p1422
I00
sa(dp1423
g1303
F0
sg1304
F0
sg1305
S''
sg1306
S''
sg1307
I255
sg1308
S''
sg1309
I00
sg1310
F0
sg1311
F0
sg1312
S''
sg1313
F20
sg1314
I01
sg1315
F1
sg1316
F0.5
sg1317
F0.5
sg1318
I00
sg1319
I00
sg1320
I00
sg1321
F0.5
sg1322
F0.5
sg1323
S'202,0,231'
p1424
sg1325
S''
sg1326
F0
sg1327
S'255,0,255'
p1425
sg1329
F0
sg1330
S'0,0,0'
p1426
sg1332
S''
sg1333
I00
sg1334
I255
sg1376
I00
sg1335
I00
sg1336
I00
sg1337
S''
sg1338
I255
sg1339
S''
sg1340
F2295
sg1341
F1230
sg1342
S''
sg1343
F0
sg1344
I0
sg1345
I00
sg1346
F0
sg1347
F0.20000000000000001
sg1348
S''
sg1349
S'orangekid'
p1427
sg1351
F0
sg1352
I16
sg1353
S''
sg1354
F0
sg1355
F0
sg1356
S'function T:setup ()\n\tPaddle.setup (self)\n\n\tself:fxResizeInit (10, 10, 20, 20, 70)\n\tself:fxBonusInit (1000, "/scoreBonusUp1.caf", true, self.onBonus)\nend\n\nfunction T:onBonus (side, x, y)\n\tlevel.bonusCount = level.bonusCount + 1\nend'
p1428
sg1358
I0
sg1359
S''
sg1360
(lp1429
sg1362
S''
sg1363
I00
sg1364
F0
sg1365
I1
sg1366
F0
sg1367
I00
sg1368
I01
sg1369
I150
sg1370
S''
sg1371
I00
sg1372
I00
sg1373
S'"lights": [\n\n{\n    "lightID": -1,\n    "kind": kLightKindRect,\n    "enabled": True,\n    "flags": kLightFlagBlink,\n    "positionX": 0.5,\n    "positionY": 0.5,\n    "width": 9,\n    "height": 9,\n    "opacity": 0,\n    "power": 0.0,\n},\n\n],\n'
p1430
sg1375
I1
sg1377
I0
sS'z'
F0
sg1378
F20
sS'kPaddleFlagIsGlobal'
p1431
I00
sa(dp1432
g1303
F0
sg1304
F0
sg1305
S''
sg1306
S''
sg1307
I255
sg1308
S''
sg1309
I00
sg1310
F0
sg1311
F0
sg1312
S''
sg1313
F20
sg1314
I01
sg1315
F1
sg1316
F0.5
sg1317
F0.5
sg1318
I00
sg1319
I00
sg1320
I00
sg1321
F0.5
sg1322
F0.5
sg1323
S'202,0,231'
p1433
sg1325
S''
sg1326
F0
sg1327
S'255,0,255'
p1434
sg1329
F0
sg1330
S'0,0,0'
p1435
sg1332
S''
sg1333
I00
sg1334
I255
sg1376
I00
sg1335
I00
sg1336
I00
sg1337
S''
sg1338
I255
sg1339
S''
sg1340
F2121
sg1341
F-594
sg1342
S''
sg1343
F0
sg1344
I0
sg1345
I00
sg1346
F0
sg1347
F0.20000000000000001
sg1348
S''
sg1349
S'orangekid'
p1436
sg1351
F0
sg1352
I16
sg1353
S''
sg1354
F0
sg1355
F0
sg1356
S'function T:setup ()\n\tPaddle.setup (self)\n\n\tself:fxResizeInit (10, 10, 20, 20, 70)\n\tself:fxBonusInit (1000, "/scoreBonusUp1.caf", true, self.onBonus)\nend\n\nfunction T:onBonus (side, x, y)\n\tlevel.bonusCount = level.bonusCount + 1\nend'
p1437
sg1358
I0
sg1359
S''
sg1360
(lp1438
sg1362
S''
sg1363
I00
sg1364
F0
sg1365
I1
sg1366
F0
sg1367
I00
sg1368
I01
sg1369
I150
sg1370
S''
sg1371
I00
sg1372
I00
sg1373
S'"lights": [\n\n{\n    "lightID": -1,\n    "kind": kLightKindRect,\n    "enabled": True,\n    "flags": kLightFlagBlink,\n    "positionX": 0.5,\n    "positionY": 0.5,\n    "width": 9,\n    "height": 9,\n    "opacity": 0,\n    "power": 0.0,\n},\n\n],\n'
p1439
sg1375
I1
sg1377
I0
sS'z'
F0
sg1378
F20
sS'kPaddleFlagIsGlobal'
p1440
I00
sa(dp1441
g767
F0
sg768
F0
sg769
S''
sg770
S''
sg771
I255
sg772
S''
sg785
I00
sg775
F0
sg776
F0
sg777
S''
sg778
F100
sg779
I01
sg948
F0
sg949
F0
sg950
F0
sg781
I00
sg782
I00
sg951
F0
sg952
F0
sg773
S'255,255,255'
p1442
sg954
S''
sg786
F0
sg787
S'0,0,0'
p1443
sg789
F0
sg783
S'0,0,0'
p1444
sg791
S'paddleHit.caf'
p1445
sg792
I00
sg958
I0
sg809
I00
sg959
I00
sg794
I00
sg795
S''
sg796
I255
sg797
S''
sg798
F2838
sg799
F1058
sg800
S'paddleMove.caf'
p1446
sg780
F0
sg961
I0
sg801
I00
sg802
F0
sg803
F0
sg804
S''
sg805
S'orangekid'
p1447
sg963
F0
sg807
I16
sg808
S''
sg827
F0
sg810
F0
sg811
S''
sg821
I0
sg812
I0
sg793
S''
sg813
(lp1448
sg815
F0
sg816
I00
sg790
F0
sg817
I1
sg818
S'prs1'
p1449
sg819
I00
sg820
I00
sg965
I0
sg822
S''
sg823
I00
sg824
I00
sg825
S'"lights": [\n\n{\n    "lightID": -1,\n    "kind": kLightKindRect,\n    "enabled": True,\n    "flags": kLightFlagBlink,\n    "positionX": 0.5,\n    "positionY": 0.5,\n    "width": 10,\n    "height": 15,\n    "opacity": 0,\n    "power": 0.0,\n},\n\n],\n'
p1450
sg826
I00
sg967
I0
sS'z'
F0
sg828
F10
sg968
I00
sa(dp1451
g1180
F0
sg1181
F0
sg1182
S'button1.caf'
p1452
sg1255
F0
sg1184
S'Buy All Levels'
p1453
sg1185
I255
sg1186
S''
sg1187
I00
sg1188
F0
sg1189
F0
sg1190
S''
sg1191
F60
sg1192
I01
sg1282
F0
sg1283
F0
sg1284
F0
sg1196
I01
sg1197
I00
sg1286
F0
sg1287
F0
sg1200
S'8,0,229'
p1454
sg1288
S''
sg1203
F0
sg1204
S'0,130,188'
p1455
sg1206
F0
sg1207
S'255,255,255'
p1456
sg1209
I00
sg1210
I00
sg1291
I0
sg1212
I00
sg1213
I00
sg1214
S''
sg1215
I255
sg1216
S''
sg1217
F2482
sg1218
F1078
sg1219
S''
sg1220
F0
sg1292
I0
sg1222
I00
sg1223
F0
sg1224
F1
sg1225
S''
sg1226
S'orangekid'
p1457
sg1294
F0
sg1229
I32
sg1230
S''
sg1231
I00
sg1232
F0
sg1233
S'\nfunction T:onClick ()\n\tlevel:buyAllLevels (self)\nend\n'
p1458
sg1235
I0
sg1236
S''
sg1237
(lp1459
sg1239
F0
sg1240
I00
sg1241
F0
sg1242
I1
sS'z'
F0
sg1243
S'buyLevels'
p1460
sg1245
I01
sg1246
I00
sg1298
I0
sg1248
S''
sg1249
I00
sg1250
S'/gong.caf'
p1461
sg1252
S'"lights": [\n\n{\n    "lightID": -1,\n    "kind": kLightKindRect,\n    "enabled": True,\n    "flags": 0,\n    "positionX": 0.5,\n    "positionY": 0.5,\n    "width": 22,\n    "height": 22,\n    "opacity": 0,\n    "power": 0.0,\n},\n\n],\n'
p1462
sg1254
I00
sg1301
I0
sg1247
I1
sg1257
F230
sg1285
I00
sasS'friction'
p1463
F0
sS'screens'
p1464
(lp1465
(dp1466
S'heroStartSpeedX'
p1467
F0
sS'heroStartSpeedY'
p1468
F0
sS'friction'
p1469
F0
sS'kScreenFlagScriptOnExit'
p1470
I01
sS'title'
p1471
S'You Are Welcome'
p1472
sS'descriptionColor'
p1473
S'200,200,200'
p1474
sS'borderSizeBottom'
p1475
I5
sg43
F-3
sg44
F0
sS'heroStartPositionY'
p1476
F0
sS'heroStartPositionX'
p1477
F0
sS'bgImage1'
p1478
S''
sS'bgImage0'
p1479
S''
sg50
S''
sg54
S''
sS'bgImage0PositionY'
p1480
F0
sS'audioSideLeftSound'
p1481
S''
sS'isCheckpoint'
p1482
I00
sS'accelerationMinX'
p1483
F0
sS'accelerationMinY'
p1484
F0
sS'bgImage2'
p1485
S''
sS'bgImage3'
p1486
S''
sg61
S'start'
p1487
sS'titleColor'
p1488
S'255,255,255'
p1489
sS'borderSizeLeft'
p1490
I5
sS'bgImage1PositionY'
p1491
F0
sS'bgImage1PositionX'
p1492
F0
sS'bgImage2Opacity'
p1493
I180
sS'bgImage2ShowDuration'
p1494
F0.5
sg8
S''
sS'messageEnabled'
p1495
I00
sS'kScreenFlagTopSideClosed'
p1496
I01
sS'borderSizeTop'
p1497
I5
sg18
S'125,5,35'
p1498
sg32
S'0,0,0'
p1499
sg59
(lp1500
sg41
I255
sS'lightGridOpacity'
p1501
I-1
sS'messageColor'
p1502
S'200,200,200'
p1503
sS'maxSpeedX'
p1504
F0
sS'difficulty'
p1505
I0
sS'bgImage3Opacity'
p1506
I180
sS'borderSizeRight'
p1507
I5
sS'maxSpeedY'
p1508
F0
sg67
I0
sS'borderSideBottomColor'
p1509
S'255,255,255'
p1510
sg73
S'\n"lights": [\n\n{\n    "lightID": -1,\n    "kind": kLightKindRect,\n    "enabled": True,\n    "flags": kLightFlagBlink,\n    "positionX": 0.5,\n    "positionY": 0.8,\n    "width": 30,\n    "height": 10,\n    "opacity": 0,\n    "power": 0.0,\n},\n\n],\n'
p1511
sS'scorePerBorderHit'
p1512
I0
sS'kScreenFlagLeftSideClosed'
p1513
I01
sg7
F0
sS'accelerationMaxY'
p1514
F0
sS'bgImage1Opacity'
p1515
I180
sg40
S''
sS'audioSideTopSound'
p1516
S''
sS'bgImage0PositionX'
p1517
F0
sS'gravityX'
p1518
F0
sS'gravityY'
p1519
F0
sg76
F480
sS'accelerationInputX'
p1520
I01
sS'accelerationInputY'
p1521
I01
sS'accelerationFactorX'
p1522
F0
sS'accelerationFactorY'
p1523
F0
sS'borderSideTopColor'
p1524
S'255,255,255'
p1525
sS'accelerationViscosityY'
p1526
F0
sS'accelerationViscosityX'
p1527
F0
sS'bgImage1ShowDuration'
p1528
F0.5
sS'availableTime'
p1529
F0
sS'messageOpacity'
p1530
I255
sS'bgImage0Opacity'
p1531
I180
sg63
I0
sS'audioBackgroundMusic'
p1532
S''
sS'bgImage3ShowDuration'
p1533
F0.5
sg10
(lp1534
sS'bgImage3PositionY'
p1535
F0
sS'bgImage0ShowDuration'
p1536
F0.5
sS'audioSideBottomSound'
p1537
S''
sS'kScreenFlagBottomSideClosed'
p1538
I00
sS'kScreenFlagScriptOnEnter'
p1539
I00
sS'kScreenFlagScriptUpdate'
p1540
I01
sS'minSpeedX'
p1541
F0
sS'minSpeedY'
p1542
F0
sS'bgImage3PositionX'
p1543
F0
sS'bgImage2PositionX'
p1544
F0
sS'bgImage2PositionY'
p1545
F0
sS'description'
p1546
S'Leave hope outside, please'
p1547
sg49
F0
sg57
S'function T:setup ()\n\tScreen.setup (self)\n\n\tif game.globalMissionBoolField ("doungeonOfSquares_1", "completed") then\n\t\tplaySound ("laughLittle.caf")\n\t\tself:cleanup ()\n\telse\n\t\tlocal messages = {\n\t\t\t{mainHero, "What the...!!!!! It\'s really dark here.", kEmoticonSurprised, 4, "laughLittle.caf", 6},\n\t\t\t{mainHero, "Pfiuuu, thank the Big Square I am radioluminescent!", kEmoticonHappy, 6, "", 7},\n\t\t\t{mainHero, "It\'s really creepy down here. Brrrrrrr", kEmoticonSad, 5, "laughLittle.caf", 6},\n\t\t\t{mainHero, "Better move on and find the way out.", kEmoticonPlain, 5, "", 7},\n\t\t\t{mainHero, "Wellazz!! It seams I can move in other directions too... great!", kEmoticonWinking, 7, "", 20},\n\t\t\t{mainHero, "Comeeeeee onnnnnnnnn!!!!!", kEmoticonAngry, 5, "", 30},\n\t\t\t{mainHero, "Oiiiiii!!!", kEmoticonAngry, 5, "", 30},\n\t\t\t{mainHero, "Burp!!!!", kEmoticonDrunk, 5, "/elements/burp.caf", 10},\n\t\t\t{mainHero, "Prrrr!!!!", kEmoticonAngry, 5, "/elements/rasberry.caf", 0},\n\t\t}\n\t\tself:startMessagesScript ("intro", messages)\n\tend\nend\n\nfunction T:cleanup ()\n\tself:unsetFlags (kScreenFlagScriptOnExit)\n\tself:unsetFlags (kScreenFlagScriptUpdate)\nend\n\nfunction T:onExit ()\n\tif not game.globalMissionBoolField ("doungeonOfSquares_1", "completed") then\n\t\tgame.setGlobalMissionFieldToBool ("doungeonOfSquares_1", "completed", true)\n\n\t\tself:stopMessagesScript ("intro")\n\n\t\tself:cleanup ()\n\tend\nend\n'
p1548
sS'lightGridOpacityDuration'
p1549
F0.29999999999999999
sS'kScreenFlagRightSideClosed'
p1550
I00
sg23
F320
sS'borderSideRightColor'
p1551
S'255,255,255'
p1552
sS'borderSideLeftColor'
p1553
S'255,255,255'
p1554
sa(dp1555
g1491
F0
sg1492
F0
sg1493
I180
sg1540
I01
sg7
F0
sg1514
F0
sg10
(lp1556
sg43
F0
sg23
F320
sg1543
F0
sg1495
I00
sg63
I0
sg1535
F0
sg1496
I00
sg40
S''
sg1537
S''
sg1470
I01
sg1538
I01
sg1471
S'Secrets'
p1557
sg1539
I01
sg18
S'125,5,35'
p1558
sg1517
F0
sg32
S'0,0,0'
p1559
sg76
F480
sg1520
I01
sg1521
I01
sg1522
F0
sg1523
F0
sg1541
F0
sg1542
F0
sg1536
F0.5
sg1526
F0
sg1527
F0
sg1473
S'200,200,200'
p1560
sg1544
F0
sg1545
F0
sg1528
F0.5
sg44
F310
sg1546
S'More than 3 ways'
p1561
sg1481
S''
sg59
(lp1562
sg49
F0
sg1501
I-1
sg1485
S''
sg1502
S'200,200,200'
p1563
sg1504
F0
sg1508
F0
sg54
S''
sg1549
F0.29999999999999999
sg1479
S''
sg57
S'function T:onEnter ()\n\tlocal messages\n\tif screen:borderActive (kScreenBorderSideBottom) then\n\t\tmessages = {\n\t\t\t{kMessageTimeout, 1},\n\t\t\t{mainHero, "I have this intuition that in this room there is a secret.", kEmoticonPlain, 15, "", 17},\n\t\t\t{mainHero, "We should find a unlock-o-secret device", kEmoticonWinking, 15, "", 0},\n\t\t}\n\telse\n\t\tmessages = {\n\t\t\t{kMessageTimeout, 1},\n\t\t\t{mainHero, "Call me wizard, but I think we should go down.", kEmoticonPlain, 15, "", 0},\n\t\t}\n\tend\n\n\tself:startMessagesScript ("secretsMessages", messages)\nend\n\nfunction T:onExit ()\n\tself:stopMessagesScript ("secretsMessages")\nend\n'
p1564
sg1494
F0.5
sg1480
F0
sg1529
F0
sg1515
I180
sg1484
F0
sg1531
I180
sg1506
I180
sg50
S''
sg1486
S''
sg1550
I00
sg61
S'secretPassage'
p1565
sg1507
I5
sg1532
S''
sg67
I0
sg1497
I5
sg1478
S''
sg1530
I255
sg1483
F0
sg1490
I5
sg1516
S''
sg73
S'\n"lights": [\n\n{\n    "lightID": -1,\n    "kind": kLightKindRect,\n    "enabled": True,\n    "flags": kLightFlagBlink,\n    "positionX": 0.5,\n    "positionY": 0.85,\n    "width": 20,\n    "height": 16,\n    "opacity": 0,\n    "power": 0.0,\n},\n\n],\n'
p1566
sS'scorePerBorderHit'
p1567
I0
sg1513
I00
sg1505
I0
sg8
S''
sg1488
S'255,255,255'
p1568
sg1475
I5
sg41
I255
sg1533
F0.5
sa(dp1569
g1491
F0
sg1492
F0
sg1493
I180
sg1540
I01
sg7
F0
sg1514
F0
sg10
(lp1570
sg43
F470
sg23
F320
sg1543
F0
sg1495
I00
sg1535
F0
sg1496
I00
sg40
S''
sg1501
I-1
sg1537
S''
sg1470
I01
sg1538
I01
sg1471
S''
sg1539
I01
sg18
S'125,5,35'
p1571
sg1517
F0
sg32
S'0,0,0'
p1572
sg76
F480
sg1520
I01
sg1521
I01
sg1522
F0
sg1523
F0
sg1541
F0
sg1542
F0
sg1536
F0.5
sg1526
F0
sg1527
F0
sg1473
S'200,200,200'
p1573
sg1544
F0
sg1545
F0
sg1528
F0.5
sg44
F310
sg1546
S''
sg1505
I0
sg1481
S''
sg59
(lp1574
sg49
F0
sg50
S''
sg63
I0
sg1502
S'200,200,200'
p1575
sg1504
F0
sg1508
F0
sg54
S''
sg1549
F0.29999999999999999
sg1479
S''
sg57
S'function T:onEnter ()\n\tlocal messages\n\tif level:screenWithName ("secretPassage"):borderActive (kScreenBorderSideBottom) then\n\t\tmessages = {\n\t\t\t{kMessageTimeout, 1},\n\t\t\t{mainHero, "I think we should keep the right.", kEmoticonPlain, 15, "", 0},\n\t\t}\n\telse\n\t\tmessages = {\n\t\t\t{kMessageTimeout, 1},\n\t\t\t{mainHero, "I think we should keep the left.", kEmoticonPlain, 15, "", 0},\n\t\t}\n\tend\n\n\tself:startMessagesScript ("secretsMessages", messages)\nend\n\nfunction T:onExit ()\n\tself:stopMessagesScript ("secretsMessages")\nend\n'
p1576
sg1494
F0.5
sg1480
F0
sg1529
F0
sg1515
I180
sg1531
I180
sg1506
I180
sg1485
S''
sg1486
S''
sg1550
I00
sg61
S's1-1'
p1577
sg1507
I5
sg1532
S''
sg67
I0
sg1497
I5
sg1478
S''
sg1530
I255
sg1483
F0
sg1490
I5
sg1516
S''
sg73
S''
sg1513
I00
sg1484
F0
sg8
S''
sg1488
S'255,255,255'
p1578
sg1475
I5
sg41
I255
sg1533
F0.5
sa(dp1579
g1491
F0
sg1492
F0
sg1493
I180
sg1540
I00
sg7
F0
sg1514
F0
sg10
(lp1580
sg43
F470
sg23
F320
sg1543
F0
sg1495
I00
sg1535
F0
sg1496
I01
sg40
S''
sg1501
I-1
sg1537
S''
sg1470
I00
sg1538
I00
sg1471
S'The Easy Way'
p1581
sg1539
I00
sg18
S'125,5,35'
p1582
sg1517
F0
sg32
S'0,0,0'
p1583
sg76
F480
sg1520
I01
sg1521
I01
sg1522
F0
sg1523
F0
sg1541
F0
sg1542
F0
sg1536
F0.5
sg1526
F0
sg1527
F0
sg1473
S'200,200,200'
p1584
sg1544
F0
sg1545
F0
sg1528
F0.5
sg44
F0
sg1546
S'Are you sure?'
p1585
sg1505
I0
sg1481
S''
sg59
(lp1586
sg49
F0
sg50
S''
sg63
I0
sg1502
S'200,200,200'
p1587
sg1504
F0
sg1508
F0
sg54
S''
sg1549
F0.29999999999999999
sg1479
S''
sg57
S''
sg1494
F0.5
sg1480
F0
sg1529
F0
sg1515
I180
sg1531
I180
sg1506
I180
sg1485
S''
sg1486
S''
sg1550
I01
sg61
S''
sg1507
I5
sg1532
S''
sg67
I0
sg1497
I5
sg1478
S''
sg1530
I255
sg1483
F0
sg1490
I5
sg1516
S''
sg73
S'\n"lights": [\n\n{\n    "lightID": -1,\n    "kind": kLightKindRect,\n    "enabled": True,\n    "flags": kLightFlagBlink,\n    "positionX": 0.4,\n    "positionY": 0.9,\n    "width": 30,\n    "height": 10,\n    "opacity": 0,\n    "power": 0.0,\n},\n\n],\n'
p1588
sg1513
I00
sg1484
F0
sg8
S''
sg1488
S'255,255,255'
p1589
sg1475
I5
sg41
I255
sg1533
F0.5
sa(dp1590
S'heroStartSpeedX'
p1591
F0
sS'heroStartSpeedY'
p1592
F0
sS'friction'
p1593
F0
sg1470
I01
sg1471
S'Speed is never enough'
p1594
sg1473
S'200,200,200'
p1595
sg1479
S''
sg43
F-470
sg44
F310
sS'heroStartPositionY'
p1596
F0
sS'heroStartPositionX'
p1597
F0
sg1478
S''
sg50
S''
sg54
S''
sg1480
F0
sg1481
S''
sS'isCheckpoint'
p1598
I00
sg1483
F0
sg1484
F0
sg1485
S''
sg1486
S''
sg61
S'turboPower'
p1599
sg1488
S'255,255,255'
p1600
sg1490
I5
sg1491
F0
sg1492
F0
sg1493
I180
sg1494
F0.5
sg8
S''
sg1495
I00
sg1496
I01
sg1497
I5
sg18
S'125,5,35'
p1601
sg32
S'0,0,0'
p1602
sg59
(lp1603
sg41
I255
sg1501
I-1
sg1502
S'200,200,200'
p1604
sg1504
F0
sg1505
I0
sg1506
I180
sg1507
I5
sg1508
F0
sg67
I0
sS'borderSideBottomColor'
p1605
S'255,255,255'
p1606
sg73
S'\n"lights": [\n\n{\n    "lightID": -1,\n    "kind": kLightKindRect,\n    "enabled": True,\n    "flags": kLightFlagBlink,\n    "positionX": 0.5,\n    "positionY": 0.8,\n    "width": 30,\n    "height": 10,\n    "opacity": 0,\n    "power": 0.0,\n},\n\n],\n'
p1607
sS'scorePerBorderHit'
p1608
I0
sg1513
I01
sg7
F0
sg1514
F0
sg1515
I180
sg40
S''
sg1516
S''
sg1520
I00
sS'gravityX'
p1609
F0
sS'gravityY'
p1610
F0
sg76
F480
sg1517
F0
sg1521
I01
sg1522
F0
sg1523
F0
sS'borderSideTopColor'
p1611
S'255,255,255'
p1612
sg1526
F0
sg1527
F0
sg1528
F0.5
sg1529
F0
sg1530
I255
sg1531
I180
sg63
I0
sg1532
S''
sg1533
F0.5
sg10
(lp1613
sg1535
F0
sg1536
F0.5
sg1537
S''
sg1538
I01
sg1539
I01
sg1540
I01
sg1541
F0
sg1542
F0
sg1543
F0
sg1544
F0
sg1545
F0
sg1546
S'But sometimes there is a bonus'
p1614
sg1475
I5
sg49
F0
sg57
S'function T:onEnter ()\n\tlevel:explorationPointsAdd ("turbo", 1)\n\n\tlocal p = level:paddleWithName ("turboCharge")\n\tif not p:enabled () then return end\n\n\tlocal messages = {\n\t\t{kMessageTimeout, 1},\n\t\t{"turboCharge", string.format ("Hit me to gain %d seconds of TURBO time.", p.turboTimeIncrement), kEmoticonPlain, 15, "", 0},\n\t}\n\t\n\tself:startMessagesScript ("turboChargeMessages", messages)\nend\n\nfunction T:onExit ()\n\tself:stopMessagesScript ("turboChargeMessages")\nend\n'
p1615
sg1549
F0.29999999999999999
sg1550
I00
sg23
F320
sS'borderSideRightColor'
p1616
S'255,255,255'
p1617
sS'borderSideLeftColor'
p1618
S'255,255,255'
p1619
sa(dp1620
g1491
F0
sg1492
F0
sg1493
I180
sg1540
I00
sg7
F0
sg1514
F0
sg10
(lp1621
sg43
F0
sg23
F320
sg1543
F0
sg1495
I00
sg1535
F0
sg1496
I00
sg40
S''
sg1501
I-1
sg1537
S''
sg1470
I00
sg1538
I00
sg1471
S''
sg1539
I00
sg18
S'125,5,35'
p1622
sg1517
F0
sg32
S'0,0,0'
p1623
sg76
F480
sg1520
I01
sg1521
I00
sg1522
F0
sg1523
F0
sg1541
F0
sg1542
F0
sg1536
F0.5
sg1526
F0
sg1527
F0
sg1473
S'200,200,200'
p1624
sg1544
F0
sg1545
F0
sg1528
F0.5
sg44
F620
sg1546
S''
sg1505
I0
sg1481
S''
sg59
(lp1625
sg49
F0
sg50
S''
sg63
I0
sg1502
S'200,200,200'
p1626
sg1504
F0
sg1508
F0
sg54
S''
sg1549
F0.29999999999999999
sg1479
S''
sg57
S''
sg1494
F0.5
sg1480
F0
sg1529
F0
sg1515
I180
sg1531
I180
sg1506
I180
sg1485
S''
sg1486
S''
sg1550
I01
sg61
S''
sg1507
I5
sg1532
S''
sg67
I0
sg1497
I5
sg1478
S''
sg1530
I255
sg1483
F0
sg1490
I5
sg1516
S''
sg73
S''
sg1513
I01
sg1484
F0
sg8
S''
sg1488
S'255,255,255'
p1627
sg1475
I5
sg41
I255
sg1533
F0.5
sa(dp1628
S'heroStartSpeedX'
p1629
F0
sS'heroStartSpeedY'
p1630
F0
sS'friction'
p1631
F0
sg1470
I00
sg1471
S'Go On'
p1632
sg1473
S'200,200,200'
p1633
sg1479
S''
sg43
F940
sg44
F310
sS'heroStartPositionY'
p1634
F0
sS'heroStartPositionX'
p1635
F0
sg1478
S''
sg50
S''
sg54
S''
sg1480
F0
sg1481
S''
sS'isCheckpoint'
p1636
I00
sg1483
F0
sg1484
F0
sg1485
S''
sg1486
S''
sg61
S''
sg1488
S'255,255,255'
p1637
sg1490
I5
sg1491
F0
sg1492
F0
sg1493
I180
sg1494
F0.5
sg8
S''
sg1495
I00
sg1496
I01
sg1497
I5
sg18
S'125,5,35'
p1638
sg32
S'0,0,0'
p1639
sg59
(lp1640
sg41
I255
sg1501
I-1
sg1502
S'200,200,200'
p1641
sg1504
F0
sg1508
F0
sg1506
I180
sg1507
I5
sg1505
I0
sg67
I0
sS'borderSideBottomColor'
p1642
S'255,255,255'
p1643
sg73
S'\n"lights": [\n\n{\n    "lightID": -1,\n    "kind": kLightKindRect,\n    "enabled": True,\n    "flags": kLightFlagBlink,\n    "positionX": 0.5,\n    "positionY": 0.7,\n    "width": 10,\n    "height": 20,\n    "opacity": 0,\n    "power": 0.0,\n},\n\n],\n'
p1644
sS'scorePerBorderHit'
p1645
I0
sg1513
I00
sg7
F0
sg1514
F0
sg1515
I180
sg40
S''
sg1516
S''
sg1520
I00
sS'gravityX'
p1646
F0
sS'gravityY'
p1647
F0
sg76
F480
sg1517
F0
sg1521
I01
sg1522
F0
sg1523
F0
sS'borderSideTopColor'
p1648
S'255,255,255'
p1649
sg1526
F0
sg1527
F0
sg1528
F0.5
sg1529
F0
sg1530
I255
sg1531
I180
sg63
I0
sg1532
S''
sg1533
F0.5
sg10
(lp1650
sg1535
F0
sg1536
F0.5
sg1537
S''
sg1538
I01
sg1539
I00
sg1540
I00
sg1541
F0
sg1542
F0
sg1543
F0
sg1544
F0
sg1545
F0
sg1546
S"You'll need it"
p1651
sg1475
I5
sg49
F0
sg57
S''
sg1549
F0.29999999999999999
sg1550
I00
sg23
F320
sS'borderSideRightColor'
p1652
S'255,255,255'
p1653
sS'borderSideLeftColor'
p1654
S'255,255,255'
p1655
sa(dp1656
S'heroStartSpeedX'
p1657
F0
sS'heroStartSpeedY'
p1658
F0
sS'friction'
p1659
F0
sg1470
I00
sg1471
S''
sg1473
S'200,200,200'
p1660
sg1479
S''
sg43
F1403
sg44
F310
sS'heroStartPositionY'
p1661
F0
sS'heroStartPositionX'
p1662
F0
sg1478
S''
sg50
S''
sg54
S''
sg1480
F0
sg1481
S''
sS'isCheckpoint'
p1663
I00
sg1483
F0
sg1484
F0
sg1485
S''
sg1486
S''
sg61
S'down'
p1664
sg1488
S'255,255,255'
p1665
sg1490
I5
sg1491
F0
sg1492
F0
sg1493
I180
sg1494
F0.5
sg8
S''
sg1495
I00
sg1496
I00
sg1497
I5
sg18
S'125,5,35'
p1666
sg32
S'0,0,0'
p1667
sg59
(lp1668
sg41
I255
sg1501
I-1
sg1502
S'200,200,200'
p1669
sg1504
F0
sg1505
I0
sg1506
I180
sg1507
I5
sg1508
F0
sg67
I0
sS'borderSideBottomColor'
p1670
S'255,255,255'
p1671
sg73
S''
sS'scorePerBorderHit'
p1672
I0
sg1513
I00
sg7
F0
sg1514
F0
sg1515
I180
sg40
S''
sg1516
S''
sg1520
I00
sS'gravityX'
p1673
F0
sS'gravityY'
p1674
F0
sg76
F480
sg1517
F0
sg1521
I01
sg1522
F2
sg1523
F2
sS'borderSideTopColor'
p1675
S'255,255,255'
p1676
sg1526
F0.10000000000000001
sg1527
F0.10000000000000001
sg1528
F0.5
sg1529
F0
sg1530
I255
sg1531
I180
sg63
I0
sg1532
S''
sg1533
F0.5
sg10
(lp1677
sg1535
F0
sg1536
F0.5
sg1537
S''
sg1538
I01
sg1539
I00
sg1540
I00
sg1541
F0
sg1542
F0
sg1543
F0
sg1544
F0
sg1545
F0
sg1546
S''
sg1475
I5
sg49
F0
sg57
S'function T:onEnter ()\n\tlocal messages\n\tif level:screenWithName ("secretPassage"):borderActive (kScreenBorderSideBottom) then\n\t\tmessages = {\n\t\t\t{kMessageTimeout, 1},\n\t\t\t{mainHero, "I think we should go up.", kEmoticonPlain, 15, "", 0},\n\t\t}\n\telse\n\t\tmessages = {\n\t\t\t{kMessageTimeout, 1},\n\t\t\t{mainHero, "I think we should keep the left.", kEmoticonPlain, 15, "", 0},\n\t\t}\n\tend\n\n\tself:startMessagesScript ("secretsMessages", messages)\nend\n\nfunction T:onExit ()\n\tself:stopMessagesScript ("secretsMessages")\nend\n'
p1678
sg1549
F0.29999999999999999
sg1550
I01
sg23
F320
sS'borderSideRightColor'
p1679
S'255,255,255'
p1680
sS'borderSideLeftColor'
p1681
S'255,255,255'
p1682
sa(dp1683
S'heroStartSpeedX'
p1684
F0
sS'heroStartSpeedY'
p1685
F0
sS'friction'
p1686
F0
sg1470
I00
sg1471
S'Cool and stady'
p1687
sg1473
S'200,200,200'
p1688
sg1479
S''
sg43
F0
sg44
F925
sS'heroStartPositionY'
p1689
F0
sS'heroStartPositionX'
p1690
F0
sg1478
S''
sg50
S''
sg54
S''
sg1480
F0
sg1481
S''
sS'isCheckpoint'
p1691
I00
sg1483
F0
sg1484
F0
sg1485
S''
sg1486
S''
sg61
S'hole'
p1692
sg1488
S'255,255,255'
p1693
sg1490
I5
sg1491
F0
sg1492
F0
sg1493
I180
sg1494
F0.5
sg8
S''
sg1495
I00
sg1496
I00
sg1497
I5
sg18
S'125,5,35'
p1694
sg32
S'0,0,0'
p1695
sg59
(lp1696
sg41
I255
sg1501
I-1
sg1502
S'200,200,200'
p1697
sg1504
F0
sg1508
F0
sg1506
I180
sg1507
I5
sg1505
I0
sg67
I0
sS'borderSideBottomColor'
p1698
S'255,255,255'
p1699
sg73
S'\n"lights": [\n\n{\n    "lightID": -1,\n    "kind": kLightKindRect,\n    "enabled": True,\n    "flags": 0,\n    "positionX": 0.5,\n    "positionY": 0.8,\n    "width": 25,\n    "height": 18,\n    "opacity": 0,\n    "power": 0.0,\n},\n\n],\n'
p1700
sS'scorePerBorderHit'
p1701
I0
sg1513
I01
sg7
F0
sg1514
F0
sg1515
I180
sg40
S''
sg1516
S''
sg1520
I01
sS'gravityX'
p1702
F0
sS'gravityY'
p1703
F0
sg76
F480
sg1517
F0
sg1521
I00
sg1522
F0
sg1523
F0
sS'borderSideTopColor'
p1704
S'255,255,255'
p1705
sg1526
F0
sg1527
F0
sg1528
F0.5
sg1529
F0
sg1530
I255
sg1531
I180
sg63
I0
sg1532
S''
sg1533
F0.5
sg10
(lp1706
sg1535
F0
sg1536
F0.5
sg1537
S''
sg1538
I00
sg1539
I00
sg1540
I00
sg1541
F0
sg1542
F0
sg1543
F0
sg1544
F0
sg1545
F0
sg1546
S'So you can find and center the spot'
p1707
sg1475
I5
sg49
F0
sg57
S''
sg1549
F0.29999999999999999
sg1550
I01
sg23
F320
sS'borderSideRightColor'
p1708
S'255,255,255'
p1709
sS'borderSideLeftColor'
p1710
S'255,255,255'
p1711
sa(dp1712
S'heroStartSpeedX'
p1713
F0
sS'heroStartSpeedY'
p1714
F0
sS'friction'
p1715
F0
sg1470
I00
sg1471
S'Final Run'
p1716
sg1473
S'200,200,200'
p1717
sg1479
S''
sg43
F922
sg44
F942
sS'heroStartPositionY'
p1718
F0
sS'heroStartPositionX'
p1719
F0
sg1478
S''
sg50
S''
sg54
S''
sg1480
F0
sg1481
S''
sS'isCheckpoint'
p1720
I00
sg1483
F0
sg1484
F0
sg1485
S''
sg1486
S''
sg61
S''
sg1488
S'255,255,255'
p1721
sg1490
I5
sg1491
F0
sg1492
F0
sg1493
I180
sg1494
F0.5
sg8
S''
sg1495
I00
sg1496
I01
sg1497
I5
sg18
S'125,5,35'
p1722
sg32
S'0,0,0'
p1723
sg59
(lp1724
sg41
I255
sg1501
I-1
sg1502
S'200,200,200'
p1725
sg1504
F0
sg1508
F0
sg1506
I180
sg1507
I5
sg1505
I0
sg67
I0
sS'borderSideBottomColor'
p1726
S'255,255,255'
p1727
sg73
S'\n"lights": [\n\n{\n    "lightID": -1,\n    "kind": kLightKindRect,\n    "enabled": True,\n    "flags": kLightFlagBlink,\n    "positionX": 0.5,\n    "positionY": 0.9,\n    "width": 15,\n    "height": 7,\n    "opacity": 0,\n    "power": 0.0,\n},\n\n],\n'
p1728
sS'scorePerBorderHit'
p1729
I0
sg1513
I01
sg7
F0
sg1514
F0
sg1515
I180
sg40
S''
sg1516
S''
sg1520
I01
sS'gravityX'
p1730
F0
sS'gravityY'
p1731
F0
sg76
F480
sg1517
F0
sg1521
I01
sg1522
F0
sg1523
F0
sS'borderSideTopColor'
p1732
S'255,255,255'
p1733
sg1526
F0
sg1527
F0
sg1528
F0.5
sg1529
F0
sg1530
I255
sg1531
I180
sg63
I0
sg1532
S''
sg1533
F0.5
sg10
(lp1734
sg1535
F0
sg1536
F0.5
sg1537
S''
sg1538
I00
sg1539
I00
sg1540
I00
sg1541
F0
sg1542
F0
sg1543
F0
sg1544
F0
sg1545
F0
sg1546
S''
sg1475
I5
sg49
F0
sg57
S''
sg1549
F0.29999999999999999
sg1550
I00
sg23
F320
sS'borderSideRightColor'
p1735
S'255,255,255'
p1736
sS'borderSideLeftColor'
p1737
S'255,255,255'
p1738
sa(dp1739
S'heroStartSpeedX'
p1740
F0
sS'heroStartSpeedY'
p1741
F0
sS'friction'
p1742
F0
sg1470
I00
sg1471
S'Left & Right'
p1743
sg1473
S'200,200,200'
p1744
sg1479
S''
sg43
F1670
sg44
F-4
sS'heroStartPositionY'
p1745
F0
sS'heroStartPositionX'
p1746
F0
sg1478
S''
sg50
S''
sg54
S''
sg1480
F0
sg1481
S''
sS'isCheckpoint'
p1747
I00
sg1483
F0
sg1484
F0
sg1485
S''
sg1486
S''
sg61
S'up'
p1748
sg1488
S'255,255,255'
p1749
sg1490
I5
sg1491
F0
sg1492
F0
sg1493
I180
sg1494
F0.5
sg8
S''
sg1495
I00
sg1496
I00
sg1497
I5
sg18
S'125,5,35'
p1750
sg32
S'0,0,0'
p1751
sg59
(lp1752
sg41
I255
sg1501
I-1
sg1502
S'200,200,200'
p1753
sg1504
F0
sg1508
F0
sg1506
I180
sg1507
I5
sg1505
I0
sg67
I0
sS'borderSideBottomColor'
p1754
S'255,255,255'
p1755
sg73
S'\n"lights": [\n\n{\n    "lightID": -1,\n    "kind": kLightKindRect,\n    "enabled": True,\n    "flags": kLightFlagBlink,\n    "positionX": 0.5,\n    "positionY": 0.8,\n    "width": 30,\n    "height": 10,\n    "opacity": 0,\n    "power": 0.0,\n},\n\n],\n'
p1756
sS'scorePerBorderHit'
p1757
I0
sg1513
I01
sg7
F0
sg1514
F0
sg1515
I180
sg40
S''
sg1516
S''
sg1520
I01
sS'gravityX'
p1758
F0
sS'gravityY'
p1759
F0
sg76
F480
sg1517
F0
sg1521
I00
sg1522
F0
sg1523
F0
sS'borderSideTopColor'
p1760
S'255,255,255'
p1761
sg1526
F0
sg1527
F0
sg1528
F0.5
sg1529
F0
sg1530
I255
sg1531
I180
sg63
I0
sg1532
S''
sg1533
F0.5
sg10
(lp1762
sg1535
F0
sg1536
F0.5
sg1537
S''
sg1538
I00
sg1539
I00
sg1540
I00
sg1541
F0
sg1542
F0
sg1543
F0
sg1544
F0
sg1545
F0
sg1546
S'Are the directions you can swipe now on'
p1763
sg1475
I5
sg49
F0
sg57
S''
sg1549
F0.29999999999999999
sg1550
I01
sg23
F320
sS'borderSideRightColor'
p1764
S'255,255,255'
p1765
sS'borderSideLeftColor'
p1766
S'255,255,255'
p1767
sa(dp1768
S'heroStartSpeedX'
p1769
F0
sS'heroStartSpeedY'
p1770
F0
sS'friction'
p1771
F0
sg1470
I01
sg1471
S'1 , 2 and 3'
p1772
sg1473
S'200,200,200'
p1773
sg1479
S''
sg43
F1387
sg44
F942
sS'heroStartPositionY'
p1774
F0
sS'heroStartPositionX'
p1775
F0
sg1478
S''
sg50
S''
sg54
S''
sg1480
F0
sg1481
S''
sS'isCheckpoint'
p1776
I00
sg1483
F0
sg1484
F0
sg1485
S''
sg1486
S''
sg61
S'touches'
p1777
sg1488
S'255,255,255'
p1778
sg1490
I5
sg1491
F0
sg1492
F0
sg1493
I180
sg1494
F0.5
sg8
S''
sg1495
I00
sg1496
I01
sg1497
I5
sg18
S'125,5,35'
p1779
sg32
S'0,0,0'
p1780
sg59
(lp1781
sg41
I255
sg1501
I220
sg1502
S'200,200,200'
p1782
sg1504
F0
sg1508
F0
sg1506
I180
sg1507
I5
sg1505
I0
sg67
I0
sS'borderSideBottomColor'
p1783
S'255,255,255'
p1784
sg73
S'\n"lights": [\n\n{\n    "lightID": -1,\n    "kind": kLightKindRect,\n    "enabled": True,\n    "flags": kLightFlagBlink,\n    "positionX": 0.5,\n    "positionY": 0.8,\n    "width": 30,\n    "height": 10,\n    "opacity": 0,\n    "power": 0.0,\n},\n\n],\n'
p1785
sS'scorePerBorderHit'
p1786
I0
sg1513
I00
sg7
F0
sg1514
F0
sg1515
I180
sg40
S''
sg1516
S''
sg1520
I00
sS'gravityX'
p1787
F0
sS'gravityY'
p1788
F0
sg76
F480
sg1517
F0
sg1521
I01
sg1522
F0
sg1523
F0
sS'borderSideTopColor'
p1789
S'255,255,255'
p1790
sg1526
F0
sg1527
F0
sg1528
F0.5
sg1529
F0
sg1530
I255
sg1531
I180
sg63
I0
sg1532
S''
sg1533
F0.5
sg10
(lp1791
sg1535
F0
sg1536
F0.5
sg1537
S''
sg1538
I01
sg1539
I01
sg1540
I01
sg1541
F0
sg1542
F0
sg1543
F0
sg1544
F0
sg1545
F0
sg1546
S'Fingers can touch in a sequence'
p1792
sg1475
I5
sg49
F0
sg57
S'function T:onEnter ()\n\tif not self:borderActive (kScreenBorderSideRight) then\n\t\tself:cleanup ()\n\telse\n\t\tlocal messages = {\n\t\t\t{mainHero, "...a puzzle!", kEmoticonSurprised, 8, "", 9},\n\t\t\t{mainHero, "It is something for your big fingers and your sense of order.", kEmoticonPlain, 20, "", 40},\n\t\t\t{mainHero, "You can solve it tapping the paddles in the right order.", kEmoticonWinking, 20, "", 40},\n\t\t\t{mainHero, "Well, you know, I am an optimist...", kEmoticonSad, 5, "", 0},\n\t\t}\n\t\tself:startMessagesScript ("puzzle", messages)\n\tend\n\n\tself.buttonSequence = {\n\t\tb1 = 1,\n\t\tb2 = 2,\n\t\tb3 = 3,\n\t}\n\tself.lastRandomInt = 1\n\tself.buttonSequenceCurrent = {0,0,0}\n\tself.buttonSequenceCurrentIdx = 1\n\tself:changeButtonSequence ()\nend\n\nfunction T:onExit ()\n\tself:stopMessagesScript ("puzzle")\nend\n\nfunction T:cleanup ()\n\tself:unsetFlags (kScreenFlagScriptOnEnter)\n\tself:unsetFlags (kScreenFlagScriptOnExit)\n\tself:unsetFlags (kScreenFlagScriptUpdate)\nend\n\nfunction T:changeButtonSequence ()\n\tlocal i = randomIntRange (1, 3)\n\twhile i == self.lastRandomInt do\n\t\ti = randomIntRange (1, 3)\n\tend\n\tself.lastRandomInt = i\n\n\tself.buttonSequence.b1 = i\n\tlevel:paddleWithName ("b1"):setLabel (string.format ("%d", i))\n\n\ti = i + 1\n\tif i > 3 then i = 1 end\n\tself.buttonSequence.b2 = i\n\tlevel:paddleWithName ("b2"):setLabel (string.format ("%d", i))\n\n\ti = i + 1\n\tif i > 3 then i = 1 end\n\tself.buttonSequence.b3 = i\n\tlevel:paddleWithName ("b3"):setLabel (string.format ("%d", i))\nend\n\nfunction T:resetButtonSequenceCurrent ()\n\tself.buttonSequenceCurrent[1] = 0\n\tself.buttonSequenceCurrent[2] = 0\n\tself.buttonSequenceCurrent[3] = 0\n\tself.buttonSequenceCurrentIdx = 1\nend\n\nfunction T:isButtonSequenceValid ()\n\treturn self.buttonSequenceCurrent[1] == 1 and self.buttonSequenceCurrent[2] == 2 and self.buttonSequenceCurrent[3] == 3\nend\n\n\nfunction T:buttonClicked (button)\n\tif not self:borderActive (kScreenBorderSideRight) then return end\n\n\tself.buttonSequenceCurrent[self.buttonSequenceCurrentIdx] = self.buttonSequence[button:name ()]\n\tself.buttonSequenceCurrentIdx = self.buttonSequenceCurrentIdx + 1\n\tif self.buttonSequenceCurrentIdx > 3 then self.buttonSequenceCurrentIdx = 1 end\n\n\tif self:isButtonSequenceValid () then\n\t\tself:stopMessagesScript ("puzzle")\n\t\tself:setBorderActive (kScreenBorderSideRight, false)\n\t\tmainHero:showMessageEmoticonDurationSound ("Well done! You can really twist your fingers!", kEmoticonHappy, 5, "wallOpen.caf")\n\t\tgame.hudShowZoomingText ("Success", "")\n\tend\nend\n\nfunction T:buttonHit (button)\n\tif not self:borderActive (kScreenBorderSideRight) then return end\n\n\tself:resetButtonSequenceCurrent ()\n\tself:changeButtonSequence ()\nend\n\n'
p1793
sg1549
F0.29999999999999999
sg1550
I01
sg23
F320
sS'borderSideRightColor'
p1794
S'255,255,255'
p1795
sS'borderSideLeftColor'
p1796
S'255,255,255'
p1797
sa(dp1798
S'heroStartSpeedX'
p1799
F0
sS'heroStartSpeedY'
p1800
F0
sS'friction'
p1801
F0
sg1470
I01
sg1471
S'Upstairs'
p1802
sg1473
S'200,200,200'
p1803
sg1479
S''
sg43
F1847
sg44
F942
sS'heroStartPositionY'
p1804
F0
sS'heroStartPositionX'
p1805
F0
sg1478
S''
sg50
S''
sg54
S''
sg1480
F0
sg1481
S''
sS'isCheckpoint'
p1806
I00
sg1483
F0
sg1484
F0
sg1485
S''
sg1486
S''
sg61
S'end'
p1807
sg1488
S'255,255,255'
p1808
sg1490
I5
sg1491
F0
sg1492
F0
sg1493
I180
sg1494
F0.5
sg8
S''
sg1495
I00
sg1496
I01
sg1497
I5
sg18
S'125,5,35'
p1809
sg32
S'0,0,0'
p1810
sg59
(lp1811
sg41
I255
sg1501
I-1
sg1502
S'200,200,200'
p1812
sg1504
F0
sg1505
I0
sg1506
I180
sg1507
I5
sg1508
F0
sg67
I0
sS'borderSideBottomColor'
p1813
S'255,255,255'
p1814
sg73
S'\n"lights": [\n\n{\n    "lightID": -1,\n    "kind": kLightKindRect,\n    "enabled": True,\n    "flags": 0,\n    "positionX": 0.5,\n    "positionY": 0.9,\n    "width": 20,\n    "height": 5,\n    "opacity": 0,\n    "power": 0.0,\n},\n\n],\n'
p1815
sS'scorePerBorderHit'
p1816
I0
sg1513
I00
sg7
F0
sg1514
F0
sg1515
I180
sg40
S''
sg1516
S''
sg1520
I00
sS'gravityX'
p1817
F0
sS'gravityY'
p1818
F0
sg76
F480
sg1517
F0
sg1521
I01
sg1522
F0
sg1523
F0
sS'borderSideTopColor'
p1819
S'255,255,255'
p1820
sg1526
F0
sg1527
F0
sg1528
F0.5
sg1529
F0
sg1530
I255
sg1531
I180
sg63
I0
sg1532
S''
sg1533
F0.5
sg10
(lp1821
sg1535
F0
sg1536
F0.5
sg1537
S''
sg1538
I01
sg1539
I01
sg1540
I01
sg1541
F0
sg1542
F0
sg1543
F0
sg1544
F0
sg1545
F0
sg1546
S''
sg1475
I5
sg49
F0
sg57
S'function T:onEnter ()\n\tlocal messages = {\n\t\t{kMessageTimeout, 1},\n\t\t{mainHero, "The exit! The exit! The green square is the exit!", kEmoticonHappy, 15, "", 25},\n\t\t{mainHero, "Go to the exit, please. I\'m getting scared.", kEmoticonSad, 15, "", 0},\n\t}\n\n\tself:startMessagesScript ("exitMessages", messages)\nend\n\nfunction T:onExit ()\n\tself:stopMessagesScript ("exitMessages")\nend\n'
p1822
sg1549
F0.29999999999999999
sg1550
I01
sg23
F320
sS'borderSideRightColor'
p1823
S'255,255,255'
p1824
sS'borderSideLeftColor'
p1825
S'255,255,255'
p1826
sa(dp1827
S'heroStartSpeedX'
p1828
F0
sS'heroStartSpeedY'
p1829
F0
sS'friction'
p1830
F0
sg1470
I00
sg1471
S''
sg1473
S'200,200,200'
p1831
sg1479
S''
sg43
F1670
sg44
F-307
sS'heroStartPositionY'
p1832
F0
sS'heroStartPositionX'
p1833
F0
sg1478
S''
sg50
S''
sg54
S''
sg1480
F0
sg1481
S''
sS'isCheckpoint'
p1834
I00
sg1483
F0
sg1484
F0
sg1485
S''
sg1486
S''
sg61
S''
sg1488
S'255,255,255'
p1835
sg1490
I5
sg1491
F0
sg1492
F0
sg1493
I180
sg1494
F0.5
sg8
S''
sg1495
I00
sg1496
I00
sg1497
I5
sg18
S'125,5,35'
p1836
sg32
S'0,0,0'
p1837
sg59
(lp1838
sg41
I255
sg1501
I-1
sg1502
S'200,200,200'
p1839
sg1504
F0
sg1508
F0
sg1506
I180
sg1507
I5
sg1505
I0
sg67
I0
sS'borderSideBottomColor'
p1840
S'255,255,255'
p1841
sg73
S'\n"lights": [\n\n{\n    "lightID": -1,\n    "kind": kLightKindRect,\n    "enabled": True,\n    "flags": kLightFlagBlink,\n    "positionX": 0.5,\n    "positionY": 0.5,\n    "width": 20,\n    "height": 25,\n    "opacity": 0,\n    "power": 0.0,\n},\n\n],\n'
p1842
sS'scorePerBorderHit'
p1843
I0
sg1513
I01
sg7
F0
sg1514
F0
sg1515
I180
sg40
S''
sg1516
S''
sg1520
I01
sS'gravityX'
p1844
F0
sS'gravityY'
p1845
F0
sg76
F480
sg1517
F0
sg1521
I00
sg1522
F0
sg1523
F0
sS'borderSideTopColor'
p1846
S'255,255,255'
p1847
sg1526
F0
sg1527
F0
sg1528
F0.5
sg1529
F0
sg1530
I255
sg1531
I180
sg63
I0
sg1532
S''
sg1533
F0.5
sg10
(lp1848
sg1535
F0
sg1536
F0.5
sg1537
S''
sg1538
I00
sg1539
I00
sg1540
I00
sg1541
F0
sg1542
F0
sg1543
F0
sg1544
F0
sg1545
F0
sg1546
S'You should (NOT) go back!'
p1849
sg1475
I5
sg49
F0
sg57
S''
sg1549
F0.29999999999999999
sg1550
I01
sg23
F320
sS'borderSideRightColor'
p1850
S'255,255,255'
p1851
sS'borderSideLeftColor'
p1852
S'255,255,255'
p1853
sa(dp1854
S'heroStartSpeedX'
p1855
F0
sS'heroStartSpeedY'
p1856
F0
sS'friction'
p1857
F0
sg1470
I01
sg1471
S'Unlock-O-Secret'
p1858
sg1473
S'200,200,200'
p1859
sg1479
S''
sg43
F1669
sg44
F-605
sS'heroStartPositionY'
p1860
F0
sS'heroStartPositionX'
p1861
F0
sg1478
S''
sg50
S''
sg54
S''
sg1480
F0
sg1481
S''
sS'isCheckpoint'
p1862
I00
sg1483
F0
sg1484
F0
sg1485
S''
sg1486
S''
sg61
S'secretPassageSwitch'
p1863
sg1488
S'255,255,255'
p1864
sg1490
I5
sg1491
F0
sg1492
F0
sg1493
I180
sg1494
F0.5
sg8
S''
sg1495
I00
sg1496
I01
sg1497
I5
sg18
S'125,5,35'
p1865
sg32
S'0,0,0'
p1866
sg59
(lp1867
sg41
I255
sg1501
I-1
sg1502
S'200,200,200'
p1868
sg1504
F100
sg1505
I0
sg1506
I180
sg1507
I5
sg1508
F100
sg67
I0
sS'borderSideBottomColor'
p1869
S'255,255,255'
p1870
sg73
S''
sS'scorePerBorderHit'
p1871
I0
sg1513
I01
sg7
F0
sg1514
F0
sg1515
I180
sg40
S''
sg1516
S''
sg1520
I01
sS'gravityX'
p1872
F0
sS'gravityY'
p1873
F0
sg76
F480
sg1517
F0
sg1521
I00
sg1522
F0
sg1523
F0
sS'borderSideTopColor'
p1874
S'255,255,255'
p1875
sg1526
F0
sg1527
F0
sg1528
F0.5
sg1529
F0
sg1530
I255
sg1531
I180
sg63
I0
sg1532
S''
sg1533
F0.5
sg10
(lp1876
sg1535
F0
sg1536
F0.5
sg1537
S''
sg1538
I00
sg1539
I01
sg1540
I01
sg1541
F2
sg1542
F2
sg1543
F0
sg1544
F0
sg1545
F0
sg1546
S'A devilishly complicated red-green device'
p1877
sg1475
I5
sg49
F0
sg57
S'function T:setup ()\n\tScreen:setup (self)\n\n\tself.switches = {\n\t\ts1 = false,\n\t\ts2 = false,\n\t\ts3 = false,\n\t}\nend\n\nfunction T:onSwitchHit (paddle)\n\tlocal name = paddle:name ()\n\tself.switches[name] = not self.switches[name]\n\n\tif self.switches[name] then\n\t\tpaddle:setColor (0, 255, 0)\n\telse\n\t\tpaddle:setColor (255, 0, 0)\n\tend\n\n\tself:checkSwitches ()\nend\n\nfunction T:checkSwitches ()\n\tlocal b = not (self.switches["s1"] and self.switches["s2"] and self.switches["s3"])\n\tlocal s = level:screenWithName ("secretPassage")\n\tlocal a = s:borderActive (kScreenBorderSideBottom)\n\n\tif b ~= a then\n\t\ts:setBorderActive (kScreenBorderSideBottom, b)\n\n\t\tlocal msg\n\t\tlocal sound\n\t\tlocal emoticon\n\t\tif not b then\n\t\t\tmsg = "I think something is opening somewhere!"\n\t\t\tsound = "wallOpen.caf"\n\t\t\temoticon = kEmoticonSurprised\n\t\t\tgame.hudShowZoomingText ("Open", "")\n\n\t\telse\n\t\t\tmsg = "It seams to me that something I\'ve opened was closed!"\n\t\t\tsound = "wallClose.caf"\n\t\t\temoticon = kEmoticonSad\n\t\t\tgame.hudShowZoomingText ("Close", "")\n\t\tend\n\t\tmainHero:showMessageEmoticonDurationSound (msg, emoticon, 5, sound)\n\t\tself:playMessages ()\n\tend\nend\n\nfunction T:playMessages ()\n\tlocal messages\n\tif level:screenWithName ("secretPassage"):borderActive (kScreenBorderSideBottom) then\n\t\tmessages = {\n\t\t\t{kMessageTimeout, 3},\n\t\t\t{"smallSwitchesDefender", "I dare you to hit the Forbidden Switches.", kEmoticonEvil, 15, "", 25},\n\t\t\t{"smallSwitchesDefender", "Your curiosity will be punished.", kEmoticonEvil, 15, "", 0},\n\t\t}\n\telse\n\t\tmessages = {\n\t\t\t{kMessageTimeout, 1},\n\t\t\t{"smallSwitchesDefender", "Go away, you have already done enough damage here!", kEmoticonSad, 5, "", 6},\n\t\t\t{"smallSwitchesDefender", \'Go back to the "Secrets" room and then down to hell!\', kEmoticonSad, 20, "", 0},\n\t\t}\n\tend\n\n\tself:startMessagesScript ("secretsMessages", messages)\nend\n\nfunction T:onEnter ()\n\tlevel:explorationPointsAdd (screen:name (), 3)\n\tself:playMessages ()\nend\n\nfunction T:onExit ()\n\tself:stopMessagesScript ("secretsMessages")\nend\n'
p1878
sg1549
F0.29999999999999999
sg1550
I01
sg23
F320
sS'borderSideRightColor'
p1879
S'255,255,255'
p1880
sS'borderSideLeftColor'
p1881
S'255,255,255'
p1882
sa(dp1883
S'heroStartSpeedX'
p1884
F0
sS'heroStartSpeedY'
p1885
F0
sS'friction'
p1886
F0
sg1470
I01
sg1471
S''
sg1473
S'200,200,200'
p1887
sg1479
S''
sg43
F0
sg44
F1241
sS'heroStartPositionY'
p1888
F0
sS'heroStartPositionX'
p1889
F0
sg1478
S''
sg50
S''
sg54
S''
sg1480
F0
sg1481
S''
sS'isCheckpoint'
p1890
I00
sg1483
F0
sg1484
F0
sg1485
S''
sg1486
S''
sg61
S'd1'
p1891
sg1488
S'255,255,255'
p1892
sg1490
I5
sg1491
F0
sg1492
F0
sg1493
I180
sg1494
F0.5
sg8
S''
sg1495
I00
sg1496
I00
sg1497
I5
sg18
S'125,5,35'
p1893
sg32
S'0,0,0'
p1894
sg59
(lp1895
sg41
I255
sg1501
I255
sg1502
S'200,200,200'
p1896
sg1504
F90
sg1508
F90
sg1506
I180
sg1507
I5
sg1505
I0
sg67
I0
sS'borderSideBottomColor'
p1897
S'255,255,255'
p1898
sg73
S''
sS'scorePerBorderHit'
p1899
I0
sg1513
I01
sg7
F0
sg1514
F0
sg1515
I180
sg40
S''
sg1516
S''
sg1520
I01
sS'gravityX'
p1900
F0
sS'gravityY'
p1901
F0
sg76
F480
sg1517
F0
sg1521
I00
sg1522
F0
sg1523
F0
sS'borderSideTopColor'
p1902
S'255,255,255'
p1903
sg1526
F0
sg1527
F0
sg1528
F0.5
sg1529
F0
sg1530
I255
sg1531
I180
sg63
I0
sg1532
S''
sg1533
F0.5
sg10
(lp1904
sg1535
F0
sg1536
F0.5
sg1537
S''
sg1538
I00
sg1539
I01
sg1540
I01
sg1541
F2
sg1542
F2
sg1543
F0
sg1544
F0
sg1545
F0
sg1546
S''
sg1475
I5
sg49
F0
sg57
S'function T:setup ()\n\tPaddle.setup (self)\n\tself.firstEnter = true\nend\n\nfunction T:onEnter ()\n\tlocal messages\n\n\tif self.firstEnter then\n\t\tself.firstEnter = false\n\t\tmessages = {\n\t\t\t{kMessageTimeout, 1},\n\t\t\t{"lab1", "Welcome to the Labyrint of Pain.", kEmoticonDevil, 5, "", 8},\n\t\t\t{"lab1", "No mercy for lost squares!", kEmoticonDevil, 5, "laughMad.caf", 12},\n\t\t\t{"lab1", "Auuuuuauuuauaua", kEmoticonDrunk, 3, "ghost1.caf", 13},\n\t\t\t{"lab1", "UuuuuuuuuuUUUUU", kEmoticonDrunk, 3, "ghost1.caf", 15},\n\t\t\t{"lab1", "Ahahaha", kEmoticonDrunk, 3, "laughMad.caf", 0},\n\t\t}\n\telse\n\t\tmessages = {\n\t\t\t{kMessageTimeout, 3},\n\t\t\t{"lab1", "Stay a while...Stay forever!", kEmoticonDrunk, 6, "laughMad.caf", 10},\n\t\t\t{"lab1", "UuuuuuuuuuUUUUU", kEmoticonDrunk, 3, "ghost1.caf", 15},\n\t\t\t{"lab1", "Auuuuuauuuauaua", kEmoticonDrunk, 3, "ghost1.caf", 13},\n\t\t\t{"lab1", "Ahahaha", kEmoticonDrunk, 3, "laughMad.caf", 0},\n\t\t}\n\n\tend\n\tself:startMessagesScript ("labMessages", messages)\nend\n\nfunction T:onExit ()\n\tself:stopMessagesScript ("labMessages")\nend\n'
p1905
sg1549
F0.29999999999999999
sg1550
I01
sg23
F320
sS'borderSideRightColor'
p1906
S'255,255,255'
p1907
sS'borderSideLeftColor'
p1908
S'255,255,255'
p1909
sa(dp1910
S'heroStartSpeedX'
p1911
F0
sS'heroStartSpeedY'
p1912
F0
sS'friction'
p1913
F0
sg1470
I01
sg1471
S''
sg1473
S'200,200,200'
p1914
sg1479
S''
sg43
F0
sg44
F1549
sS'heroStartPositionY'
p1915
F0
sS'heroStartPositionX'
p1916
F0
sg1478
S''
sg50
S'maze.caf'
p1917
sg54
S''
sg1480
F0
sg1481
S''
sS'isCheckpoint'
p1918
I00
sg1483
F0
sg1484
F0
sg1485
S''
sg1486
S''
sg61
S'd1'
p1919
sg1488
S'255,255,255'
p1920
sg1490
I5
sg1491
F0
sg1492
F0
sg1493
I180
sg1494
F0.5
sg8
S''
sg1495
I00
sg1496
I00
sg1497
I5
sg18
S'125,5,35'
p1921
sg32
S'0,0,0'
p1922
sg59
(lp1923
sg41
I255
sg1501
I255
sg1502
S'200,200,200'
p1924
sg1504
F60
sg1505
I0
sg1506
I180
sg1507
I5
sg1508
F60
sg67
I0
sS'borderSideBottomColor'
p1925
S'255,255,255'
p1926
sg73
S''
sS'scorePerBorderHit'
p1927
I0
sg1513
I01
sg7
F0
sg1514
F0
sg1515
I180
sg40
S''
sg1516
S''
sg1520
I01
sS'gravityX'
p1928
F0
sS'gravityY'
p1929
F0
sg76
F480
sg1517
F0
sg1521
I00
sg1522
F0
sg1523
F0
sS'borderSideTopColor'
p1930
S'255,255,255'
p1931
sg1526
F0
sg1527
F0
sg1528
F0.5
sg1529
F0
sg1530
I255
sg1531
I180
sg63
I0
sg1532
S''
sg1533
F0.5
sg10
(lp1932
sg1535
F0
sg1536
F0.5
sg1537
S''
sg1538
I01
sg1539
I01
sg1540
I01
sg1541
F2
sg1542
F2
sg1543
F0
sg1544
F0
sg1545
F0
sg1546
S''
sg1475
I5
sg49
F0
sg57
S'function T:setup ()\n\tPaddle.setup (self)\nend\n\nfunction T:onEnter ()\n\tlocal messages = {\n\t\t{kMessageTimeout, 1},\n\t\t{"lab2", "Do not even think to come here.", kEmoticonDevil, 7, "", 8},\n\t\t{"lab2", "Better! Come here, please.", kEmoticonDevil, 7, "laughLittle.caf", 10},\n\t\t{"lab1", "Auuuuuauuuauaua", kEmoticonDevil, 3, "ghost1.caf", 13},\n\t\t{"lab1", "UuuuuuuuuuUUUUU", kEmoticonDevil, 3, "ghost1.caf", 11},\n\t\t{"lab1", "No way out of here!", kEmoticonDevil, 3, "laughMad.caf", 8},\n\t\t{"lab1", "Auuuuuauuuauaua", kEmoticonDevil, 3, "ghost1.caf", 13},\n\t\t{"lab1", "Ahahaha", kEmoticonDevil, 3, "laughMad.caf", 0},\n\t}\n\n\tself:startMessagesScript ("labMessages", messages)\nend\n\nfunction T:onExit ()\n\tself:stopMessagesScript ("labMessages")\nend\n'
p1933
sg1549
F0.29999999999999999
sg1550
I00
sg23
F320
sS'borderSideRightColor'
p1934
S'255,255,255'
p1935
sS'borderSideLeftColor'
p1936
S'255,255,255'
p1937
sa(dp1938
S'heroStartSpeedX'
p1939
F0
sS'heroStartSpeedY'
p1940
F0
sS'friction'
p1941
F0
sg1470
I01
sg1471
S''
sg1473
S'200,200,200'
p1942
sg1479
S''
sg43
F458
sg44
F1549
sS'heroStartPositionY'
p1943
F0
sS'heroStartPositionX'
p1944
F0
sg1478
S''
sg50
S''
sg54
S''
sg1480
F0
sg1481
S''
sS'isCheckpoint'
p1945
I00
sg1483
F0
sg1484
F0
sg1485
S''
sg1486
S''
sg61
S'upupup'
p1946
sg1488
S'255,255,255'
p1947
sg1490
I5
sg1491
F0
sg1492
F0
sg1493
I180
sg1494
F0.5
sg8
S''
sg1495
I00
sg1496
I00
sg1497
I5
sg18
S'125,5,35'
p1948
sg32
S'0,0,0'
p1949
sg59
(lp1950
sg41
I255
sg1501
I-1
sg1502
S'200,200,200'
p1951
sg1504
F0
sg1508
F0
sg1506
I180
sg1507
I5
sg1505
I0
sg67
I0
sS'borderSideBottomColor'
p1952
S'255,255,255'
p1953
sg73
S'\n"lights": [\n\n{\n    "lightID": -1,\n    "kind": kLightKindRect,\n    "enabled": True,\n    "flags": kLightFlagBlink,\n    "positionX": 0.5,\n    "positionY": 0.7,\n    "width": 10,\n    "height": 10,\n    "opacity": 0,\n    "power": 0.0,\n},\n\n],\n'
p1954
sS'scorePerBorderHit'
p1955
I0
sg1513
I00
sg7
F0
sg1514
F0
sg1515
I180
sg40
S''
sg1516
S''
sg1520
I01
sS'gravityX'
p1956
F0
sS'gravityY'
p1957
F0
sg76
F480
sg1517
F0
sg1521
I00
sg1522
F0
sg1523
F0
sS'borderSideTopColor'
p1958
S'255,255,255'
p1959
sg1526
F0
sg1527
F0
sg1528
F0.5
sg1529
F0
sg1530
I255
sg1531
I180
sg63
I0
sg1532
S''
sg1533
F0.5
sg10
(lp1960
sg1535
F0
sg1536
F0.5
sg1537
S''
sg1538
I01
sg1539
I01
sg1540
I01
sg1541
F0
sg1542
F0
sg1543
F0
sg1544
F0
sg1545
F0
sg1546
S'UP UP UP'
p1961
sg1475
I5
sg49
F0
sg57
S'function T:onEnter ()\n\tlevel:explorationPointsAdd ("maze", 4)\n\n\tlocal messages = {\n\t\t{kMessageTimeout, 1},\n\t\t{mainHero, "That was fun.", kEmoticonHappy, 5, "", 5},\n\t\t{mainHero, "I can see an open wall up there... lets go.", kEmoticonPlain, 12, "", 0},\n\t}\n\n\tself:startMessagesScript ("slideMessages", messages)\nend\n\nfunction T:onExit ()\n\tself:stopMessagesScript ("slideMessages")\nend\n'
p1962
sg1549
F0.29999999999999999
sg1550
I01
sg23
F320
sS'borderSideRightColor'
p1963
S'255,255,255'
p1964
sS'borderSideLeftColor'
p1965
S'255,255,255'
p1966
sa(dp1967
S'heroStartSpeedX'
p1968
F20
sS'heroStartSpeedY'
p1969
F0
sS'friction'
p1970
F0
sg1470
I01
sg1471
S''
sg1473
S'200,200,200'
p1971
sg1475
I5
sg43
F717
sg44
F1242
sS'heroStartPositionY'
p1972
F160
sS'heroStartPositionX'
p1973
F90
sg1478
S''
sg1479
S''
sg50
S''
sg54
S''
sg1480
F0
sg1481
S''
sS'isCheckpoint'
p1974
I01
sg1483
F0
sg1484
F0
sg1485
S''
sg1486
S''
sg61
S''
sg1488
S'255,255,255'
p1975
sg1490
I5
sg1491
F0
sg1492
F0
sg1493
I180
sg1494
F0.5
sg8
S''
sg1495
I00
sg1496
I00
sg1497
I5
sg18
S'125,5,35'
p1976
sg32
S'0,0,0'
p1977
sg59
(lp1978
sg41
I255
sg1501
I-1
sg1502
S'200,200,200'
p1979
sg1504
F0
sg1508
F0
sg1506
I180
sg1507
I5
sg1505
I0
sg67
I0
sS'borderSideBottomColor'
p1980
S'255,255,255'
p1981
sg73
S'\n"lights": [\n\n{\n    "lightID": -1,\n    "kind": kLightKindRect,\n    "enabled": True,\n    "flags": kLightFlagBlink,\n    "positionX": 0.5,\n    "positionY": 0.75,\n    "width": 30,\n    "height": 5,\n    "opacity": 0,\n    "power": 0.0,\n},\n\n],\n'
p1982
sS'scorePerBorderHit'
p1983
I0
sg1513
I01
sg7
F0
sg1514
F0
sg1515
I180
sg40
S''
sg1516
S''
sg1517
F0
sS'gravityX'
p1984
F0
sS'gravityY'
p1985
F0
sg76
F480
sg1520
I01
sg1521
I01
sg1522
F0
sg1523
F0
sS'borderSideTopColor'
p1986
S'255,255,255'
p1987
sg1526
F0
sg1527
F0
sg1528
F0.5
sg1529
F0
sg1530
I255
sg1531
I180
sg63
I0
sg1532
S''
sg1533
F0.5
sg10
(lp1988
sg1535
F0
sg1536
F0.5
sg1537
S''
sg1538
I00
sg1539
I01
sg1540
I01
sg1541
F0
sg1542
F0
sg1543
F0
sg1544
F0
sg1545
F0
sg1546
S'Up again, avoiding the sliding doord'
p1989
sg49
F0
sg57
S'function T:onEnter ()\n\tlocal messages = {\n\t\t{kMessageTimeout, 1},\n\t\t{mainHero, "I feel I can move everywhere.", kEmoticonHappy, 10, "", 12},\n\t\t{mainHero, "And I feel we have to go up, beyond the sliding wall.", kEmoticonPlain, 12, "", 0},\n\t}\n\n\tself:startMessagesScript ("slideMessages", messages)\nend\n\nfunction T:onExit ()\n\tself:stopMessagesScript ("slideMessages")\nend\n'
p1990
sg1549
F0.29999999999999999
sg1550
I01
sg23
F320
sS'borderSideRightColor'
p1991
S'255,255,255'
p1992
sS'borderSideLeftColor'
p1993
S'255,255,255'
p1994
sa(dp1995
g1799
F0
sg1800
F0
sg1801
F0
sg1470
I01
sg1471
S'PRS'
p1996
sg1473
S'200,200,200'
p1997
sg1479
S''
sg43
F2422
sg44
F945
sg1804
F0
sg1805
F0
sg1478
S''
sg50
S''
sg54
S''
sg1480
F0
sg1481
S''
sg1806
I00
sg1483
F0
sg1484
F0
sg1485
S''
sg1486
S''
sg61
S'prs'
p1998
sg1488
S'255,255,255'
p1999
sg1490
I5
sg1491
F0
sg1492
F0
sg1493
I180
sg1494
F0.5
sg8
S''
sg1495
I00
sg1496
I01
sg1497
I5
sg18
S'125,5,35'
p2000
sg32
S'0,0,0'
p2001
sg59
(lp2002
sg41
I255
sg1501
I-1
sg1502
S'200,200,200'
p2003
sg1504
F0
sg1505
I0
sg1506
I180
sg1507
I5
sg1508
F0
sg67
I0
sg1813
S'255,255,255'
p2004
sg73
S'\n"lights": [\n\n{\n    "lightID": -1,\n    "kind": kLightKindRect,\n    "enabled": True,\n    "flags": kLightFlagBlink,\n    "positionX": 0.5,\n    "positionY": 0.9,\n    "width": 22,\n    "height": 15,\n    "opacity": 0,\n    "power": 0.0,\n},\n\n],\n'
p2005
sg1816
I0
sg1513
I01
sg7
F0
sg1514
F0
sg1515
I180
sg40
S''
sg1516
S''
sg1520
I00
sg1817
F0
sg1818
F0
sg76
F480
sg1517
F0
sg1521
I01
sg1522
F0
sg1523
F0
sg1819
S'255,255,255'
p2006
sg1526
F0
sg1527
F0
sg1528
F0.5
sg1529
F0
sg1530
I255
sg1531
I180
sg63
I0
sg1532
S''
sg1533
F0.5
sg10
(lp2007
sg1535
F0
sg1536
F0.5
sg1537
S''
sg1538
I01
sg1539
I01
sg1540
I01
sg1541
F0
sg1542
F0
sg1543
F0
sg1544
F0
sg1545
F0
sg1546
S'Pongland Revenue Service'
p2008
sg1475
I5
sg49
F0
sg57
S'function T:onEnter ()\n\tlocal messages = {\n\t\t{kMessageTimeout, 1},\n\t\t{"prs1", "Who are you?", kEmoticonPlain, 5, "", 4},\n\t\t{"prs1", "Where are you going?", kEmoticonPlain, 5, "", 4},\n\t\t{"prs1", "What are you carrying?", kEmoticonPlain, 5, "", 4},\n\t\t{"prs1", "I really do not care!", kEmoticonSad, 5, "", 6},\n\t\t{"prs1", "But you need to pay to go on...", kEmoticonSad, 10, "", 0},\n\t}\n\n\tself:startMessagesScript ("prsMessages", messages)\nend\n\nfunction T:onExit ()\n\tself:stopMessagesScript ("prsMessages")\nend\n'
p2009
sg1549
F0.29999999999999999
sg1550
I01
sg23
F320
sg1823
S'255,255,255'
p2010
sg1825
S'255,255,255'
p2011
sasS'turboSecondsAvailable'
p2012
F1
sS'scorePerSecondLeft'
p2013
I500
sg1505
I0
sS'heroStartColor'
p2014
S'255,255,255'
p2015
sg40
S''
sS'index'
p2016
S'2'
sg1537
S'borderHit.caf'
p2017
sg1471
S'Dungeon of Squares'
p2018
sg1516
S'borderHit.caf'
p2019
sS'gravityX'
p2020
F0
sS'gravityY'
p2021
F0
sg1520
I00
sg1521
I01
sg1522
F1
sg1523
F1
sg1541
F2
sg1542
F2
sS'kLevelFlagShowHUD'
p2022
I01
sg73
S''
sS'borderSideTopColor'
p2023
S'255,255,255'
p2024
sg1526
F0.75
sg1527
F0.75
sS'leaderboard'
p2025
S'332753'
p2026
sS'screenShowDuration'
p2027
F0.20000000000000001
sg1483
F-100
sS'leaderboardFree'
p2028
S'520894'
p2029
sg1514
F100
sS'heroStartPositionY'
p2030
F300
sg1546
S''
sg1501
I240
sg1504
F200
sg1508
F200
sg54
S''
sS'heroHeight'
p2031
F10
sS'turboFactor'
p2032
F3
sg57
S'function T:setup ()\n\tLevel.setup (self)\n\n\tself.bonusCount = 0\n\tself.numBonuses = 8\n\n\tif game.inputMode () == kInputModeJoystick and game.difficultyLevel () == kDifficultyLow then\n\t\tgame.levelSetAccelerationMin (-90, -90)\n\t\tgame.levelSetAccelerationMax (90, 90)\n\t\tgame.levelSetMaxSpeed (160, 160)\n\t\tgame.levelSetJoystickAccelerationFactor (0.8)\n\tend\nend\n\nfunction T:gotoNextLevel ()\n\tlocal seconds\n\tseconds = 5\n\n\tlevel:explorationPointsAdd ("end", 5)\n\n\tstopBackgroundMusic ()\n\tscreen:stopMessagesScript ("exitMessages")\n\n\tmainHero:setPaused (true)\n\tmainHero:showMessageEmoticonSound ("Finally! There is a light at the end of the tunnel! I hope it is not a train!", kEmoticonHappy, "levelExit.caf")\n\n\tgame.hudShowZoomingText ("Exit!", "")\n\n\tlocal unlocked\n\tunlocked = false\n\tif not game.openFeintIsAchievementUnlocked (OFA_DUNGEON_OF_SQUARES_LEVEL_COMPLETED) then\n\t\tgame.openFeintUnlockAchievement (OFA_DUNGEON_OF_SQUARES_LEVEL_COMPLETED)\n\t\tunlocked = true\n\tend\n\tif game.levelWasTurboUsed () == false and not game.openFeintIsAchievementUnlocked (OFA_DUNGEON_OF_SQUARES_WITHOUT_TURBO) then\n\t\tgame.openFeintUnlockAchievement (OFA_DUNGEON_OF_SQUARES_WITHOUT_TURBO)\n\t\tunlocked = true\n\tend\n\tif level.bonusCount == level.numBonuses and not game.openFeintIsAchievementUnlocked (OFA_DUNGEON_OF_SQUARES_FULL_BONUS) then\n\t\tgame.openFeintUnlockAchievement (OFA_DUNGEON_OF_SQUARES_FULL_BONUS)\n\t\tunlocked = true\n\tend\n\n\tif unlocked then seconds = seconds + 4 end\n\n\tgame.levelSetCompleted (level.index, true)\n\tgame.levelSetAvailableWithName (level:nextLevelName (), true)\n\n\tlocal message, bonusScore\n\tlocal questElapsedTime, levelElapsedTime, levelTimeLeft = game.timeStats ()\n\tlocal score, scoreMultiplier, previousLevelScore, currentLevelScore = game.scoreStats ()\n\n\n\tif level.bonusCount == level.numBonuses then\n\t\tbonusScore = 15000\n\telseif level.bonusCount == level.numBonuses - 1 then\n\t\tbonusScore = 10000\n\telseif level.bonusCount == level.numBonuses - 2 then\n\t\tbonusScore = 5000\n\telse\n\t\tbonusScore = 0\n\tend\n\n\tif levelElapsedTime <= 600 then\n\t\tmessage = "A dwarf in a cave is slower than you!!"\n\t\tbonusScore = bonusScore + 10000\n\telse\n\t\tmessage = "Well done, for a human..."\n\tend\n\n\tgame.showLevelScorePanel (seconds, message, 0, 0, 0, bonusScore, level:nextLevelName ())\nend\n\nfunction T:buyAllLevels ()\n\tgame.buyAllLevels ()\nend\n'
p2033
sg1529
F600
sg1481
S'borderHit.caf'
p2034
sS'heroWidth'
p2035
F10
sS'explorationPoints'
p2036
I13
sg1484
F-100
sg63
I0
sg1549
F0.29999999999999999
sg61
S'dungeonOfSquares'
p2037
sg1532
S'music.mp3'
p2038
sS'nextLevelName'
p2039
S'doodlePaddle'
p2040
sS'heroStartPositionX'
p2041
F240
sS'heroStartLightEnabled'
p2042
I01
sS'heroStartAccelerationY'
p2043
F0
sS'kLevelFlagScriptUpdate'
p2044
I00
sS'borderSideBottomColor'
p2045
S'255,255,255'
p2046
sS'kLevelFlagLevelUpdate'
p2047
I01
sS'borderSideRightColor'
p2048
S'255,255,255'
p2049
sS'minimumScore'
p2050
I0
sS'borderSideLeftColor'
p2051
S'255,255,255'
p2052
sS'firstScreen'
p2053
S'start'
p2054
s.