(dp1
S'heroStartSpeedX'
p2
F100
sS'heroStartSpeedY'
p3
F50
sS'kLevelFlagDoNotStartBackgroundMusic'
p4
I00
sS'joystickAccelerationFactor'
p5
F0
sS'heroStartAccelerationX'
p6
F0
sS'accelerationMaxX'
p7
F100
sS'audioSideRightSound'
p8
S'/paddleHit1.caf'
p9
sS'paddles'
p10
(lp11
(dp12
S'maxX'
p13
F0
sS'maxY'
p14
F0
sS'audioClickSound'
p15
S'/buttonClick1.caf'
p16
sS'labelText'
p17
S'Escape!'
p18
sS'labelOpacity'
p19
I255
sS'aiDefensiveKind'
p20
S''
sS'colorColor1'
p21
S'255,255,255'
p22
sS'energy'
p23
F0
sS'elasticity'
p24
F0
sS'aiDefensiveConfig'
p25
S''
sS'height'
p26
F28
sS'kPaddleFlagEnabled'
p27
I01
sS'scorePerHit'
p28
I0
sS'audioMoveSoundTimeout'
p29
F0
sS'topImagePositionX'
p30
F0
sS'topImagePositionY'
p31
F0
sS'kPaddleFlagScriptHandleTouches'
p32
I01
sS'kPaddleFlagScriptOnExit'
p33
I00
sS'topImageWidth'
p34
I0
sS'topImageAnchorX'
p35
F0
sS'topImageAnchorY'
p36
F0
sS'kPaddleFlagScriptOnSideToggled'
p37
I00
sS'topImageName'
p38
S''
sS'proximityAccelerationY'
p39
F0
sS'colorColor2'
p40
S'0,0,0'
p41
sS'minX'
p42
F0
sS'labelColor'
p43
S'0,0,0'
p44
sS'kPaddleFlagCollisionDisabled'
p45
I00
sS'kPaddleFlagScriptOnEnter'
p46
I00
sS'topImageOpacity'
p47
I0
sS'kPaddleFlagNoPositionLimit'
p48
I00
sS'kPaddleFlagBlockTouches'
p49
I00
sS'audioInSound'
p50
S''
sS'colorOpacity'
p51
I255
sS'aiOffensiveConfig'
p52
S''
sS'positionX'
p53
F82
sS'positionY'
p54
F127
sS'audioMoveSound'
p55
S''
sS'proximityAccelerationX'
p56
F0
sS'topImageHeight'
p57
I0
sS'kPaddleFlagScriptOnHeroInProxymityArea'
p58
I00
sS'proximityWidth'
p59
F0
sS'colorTintToDuration'
p60
F0
sS'audioSoundLoop'
p61
S''
sS'labelFont'
p62
S'orangekid'
p63
sS'topImageRotation'
p64
F0
sS'labelFontSize'
p65
I16
sS'audioOutSound'
p66
S''
sS'kPaddleFlagIsInvisible'
p67
I00
sS'speedX'
p68
F0
sS'scripts'
p69
S'\nfunction T:onClick ()\n\tgame.levelMoveMainHeroToScreenNameAtPosition ("newEscape", 400, 300)\nend\n'
p70
sS'proximityMode'
p71
I0
sS'aiOffensiveKind'
p72
S''
sS'lights'
p73
(lp74
sS'proximityHeight'
p75
F0
sS'kPaddleFlagSelected'
p76
I00
sS'minY'
p77
F0
sS'kind'
p78
I1
sS'name'
p79
S'newEscape'
p80
sS'kPaddleFlagIsButton'
p81
I01
sS'kPaddleFlagScriptUpdate'
p82
I00
sS'colorMode'
p83
I0
sS'textureName'
p84
S''
sS'kPaddleFlagScriptApplyProximityInfluenceToHero'
p85
I00
sS'audioHitSound'
p86
S'/paddleHit2.caf'
p87
sS'extensions'
p88
S''
sS'kPaddleFlagOffensiveSide'
p89
I00
sS'speedY'
p90
F0
sS'z'
F0
sS'width'
p91
F204
sS'kPaddleFlagIsGlobal'
p92
I00
sa(dp93
g13
F0
sg14
F0
sg15
S'/buttonClick1.caf'
p94
sg17
S'Resume Escape'
p95
sg19
I255
sg20
S''
sg21
S'255,255,255'
p96
sg23
F0
sg24
F0
sg25
S''
sg26
F28
sg27
I01
sS'scorePerHit'
p97
I0
sS'audioMoveSoundTimeout'
p98
F0
sS'topImagePositionX'
p99
F0
sS'topImagePositionY'
p100
F0
sg32
I01
sg33
I00
sS'topImageWidth'
p101
I0
sS'topImageAnchorX'
p102
F0
sS'topImageAnchorY'
p103
F0
sg37
I00
sS'topImageName'
p104
S''
sg39
F0
sg40
S'0,0,0'
p105
sg42
F0
sg43
S'0,0,0'
p106
sg45
I00
sg46
I00
sS'topImageOpacity'
p107
I0
sS'kPaddleFlagNoPositionLimit'
p108
I00
sg49
I00
sg50
S''
sg51
I255
sg52
S''
sg53
F82
sg54
F167
sg55
S''
sg56
F0
sS'topImageHeight'
p109
I0
sg58
I00
sg59
F0
sg60
F0
sg61
S''
sg62
S'orangekid'
p110
sS'topImageRotation'
p111
F0
sg65
I16
sg66
S''
sS'kPaddleFlagIsInvisible'
p112
I00
sg68
F0
sg69
S'function T:setup ()\n        Paddle.setup (self)\n        self:setEnabled (game.hasSavedGame ())\nend\n\n\nfunction T:onClick ()\n\tgame.resumeSavedGame ()\nend\n'
p113
sg71
I0
sg72
S''
sg73
(lp114
sg75
F0
sg76
I00
sg77
F0
sg78
I1
sg79
S'resumeEscape'
p115
sg81
I01
sg82
I00
sg83
I0
sS'textureName'
p116
S''
sg85
I00
sg86
S'/paddleHit2.caf'
p117
sg88
S''
sg89
I00
sg90
F0
sS'z'
F0
sg91
F203
sS'kPaddleFlagIsGlobal'
p118
I00
sa(dp119
g13
F0
sg14
F0
sg15
S'/buttonClick1.caf'
p120
sg17
S'Escape from Pongland - The Quest!'
p121
sg19
I255
sg20
S''
sg21
S'243,238,0'
p122
sg23
F0
sg24
F0
sg25
S''
sg26
F28
sg27
I01
sS'audioMoveSoundTimeout'
p123
F0
sS'topImagePositionX'
p124
F0
sS'topImagePositionY'
p125
F0
sg32
I01
sg89
I00
sg33
I00
sS'topImageAnchorX'
p126
F0
sS'topImageAnchorY'
p127
F0
sg37
I00
sS'topImageName'
p128
S''
sg39
F0
sg40
S'255,255,255'
p129
sg42
F0
sg43
S'0,0,0'
p130
sg45
I00
sg46
I00
sS'topImageOpacity'
p131
I0
sS'kPaddleFlagNoPositionLimit'
p132
I00
sg49
I00
sg50
S''
sg51
I255
sg52
S''
sg53
I530
sg54
I135
sg55
S''
sg56
F0
sS'topImageHeight'
p133
I0
sg58
I00
sg59
F0
sg60
F0.5
sg61
S''
sg62
S'orangekid'
p134
sS'topImageRotation'
p135
F0
sg65
I16
sg66
S''
sg90
F0
sg68
F0
sg69
S'\nfunction T:onClick ()\n\tgame.startGameWithLevelName ("pongland", kGMQuest, true)\nend\n'
p136
sg71
I0
sg72
S''
sg73
(lp137
sg75
F0
sg76
I00
sg77
F0
sg78
I1
sS'z'
F0
sg79
S'newEscapeStart'
p138
sg81
I01
sg82
I00
sS'scorePerHit'
p139
I0
sS'textureName'
p140
S''
sg85
I00
sg86
S'/paddleHit2.caf'
p141
sg88
S''
sg83
I1
sS'kPaddleFlagIsInvisible'
p142
I00
sS'topImageWidth'
p143
I0
sg91
F300
sS'kPaddleFlagIsGlobal'
p144
I00
sa(dp145
g13
F0
sg14
F0
sg15
S'/buttonClick1.caf'
p146
sg17
S'Back'
p147
sg19
I255
sg20
S''
sg37
I00
sg23
F0
sS'textureName'
p148
S''
sg24
F0
sg25
S''
sg26
F28
sg27
I01
sS'scorePerHit'
p149
I0
sS'audioMoveSoundTimeout'
p150
F0
sS'topImagePositionX'
p151
F0
sS'topImagePositionY'
p152
F0
sg32
I01
sg33
I00
sS'topImageWidth'
p153
I0
sS'topImageAnchorX'
p154
F0
sS'topImageAnchorY'
p155
F0
sg21
S'255,255,255'
p156
sS'topImageName'
p157
S''
sg39
F0
sg40
S'0,0,0'
p158
sg42
F0
sg43
S'0,0,0'
p159
sg45
I00
sg46
I00
sS'topImageOpacity'
p160
I0
sg49
I00
sg50
S''
sg51
I255
sg52
S''
sg53
F531
sg54
F272
sg55
S''
sg56
F0
sS'topImageHeight'
p161
I0
sg58
I00
sg59
F0
sg60
F0
sg61
S''
sg62
S'orangekid'
p162
sS'topImageRotation'
p163
F0
sg65
I16
sg66
S''
sg90
F0
sg68
F0
sg69
S'\nfunction T:onClick ()\n\tgame.levelMoveMainHeroToScreenNameAtPosition ("mainMenu", 150, 130)\nend\n'
p164
sg71
I0
sg72
S''
sg73
(lp165
sg79
S'newEscapeBack'
p166
sg76
I00
sg77
F0
sg78
I1
sg75
F0
sg81
I01
sg82
I00
sg83
I0
sS'kPaddleFlagNoPositionLimit'
p167
I00
sg85
I00
sg86
S'/paddleHit2.caf'
p168
sg88
S''
sg89
I00
sS'kPaddleFlagIsInvisible'
p169
I00
sS'z'
F0
sg91
F100
sS'kPaddleFlagIsGlobal'
p170
I00
sa(dp171
g13
F0
sg14
F0
sg15
S'/buttonClick1.caf'
p172
sg17
S'Select Escape'
p173
sg19
I255
sg20
S''
sg21
S'255,255,255'
p174
sg23
F0
sS'textureName'
p175
S''
sg24
F0
sg25
S''
sg26
F28
sg27
I01
sS'audioMoveSoundTimeout'
p176
F0
sS'topImagePositionX'
p177
F0
sS'topImagePositionY'
p178
F0
sg32
I01
sg33
I00
sS'kPaddleFlagIsGlobal'
p179
I00
sS'topImageAnchorX'
p180
F0
sS'topImageAnchorY'
p181
F0
sg37
I00
sS'topImageName'
p182
S''
sg39
F0
sg40
S'0,0,0'
p183
sg42
F0
sg43
S'0,0,0'
p184
sg45
I00
sg46
I01
sS'topImageOpacity'
p185
I0
sS'kPaddleFlagIsInvisible'
p186
I00
sg49
I00
sg50
S''
sg51
I255
sg52
S''
sg53
F530
sg54
F168
sg55
S''
sg56
F0
sS'topImageHeight'
p187
I0
sg58
I00
sg59
F0
sg60
F0
sg61
S''
sg62
S'orangekid'
p188
sS'topImageRotation'
p189
F0
sg65
I16
sg66
S''
sg90
F0
sg68
F0
sg69
S'\nfunction T:setup ()\n\tPaddle.setup (self)\n\tself:updateLabel ()\nend\n\nfunction T:onEnter ()\n\tPaddle.onEnter (self)\n\tself:updateLabel ()\nend\n\nfunction T:updateLabel ()\n\tlocal levelIndex, levelTitle = game.levelCurrentAvailable ()\n\tself:setLabel (string.format ("Start from %s", levelTitle))\nend\n\nfunction T:onClick ()\n\tscreen:startLevel ()\nend\n'
p190
sg71
I0
sg72
S''
sg73
(lp191
sg79
S'newEscapeFrom'
p192
sg76
I00
sg77
F0
sg78
I1
sg75
F0
sg81
I01
sg82
I00
sS'scorePerHit'
p193
I0
sS'kPaddleFlagNoPositionLimit'
p194
I00
sg85
I00
sg86
S'/paddleHit2.caf'
p195
sg88
S''
sg83
I0
sS'topImageWidth'
p196
I0
sS'z'
F0
sg91
F300
sg89
I00
sa(dp197
g13
F0
sg14
F0
sg15
S'/buttonClick1.caf'
p198
sg17
S'>'
sg19
I255
sg20
S''
sg21
S'255,255,255'
p199
sg23
F0
sS'textureName'
p200
S''
sg24
F0
sg25
S''
sg26
F28
sg27
I01
sS'audioMoveSoundTimeout'
p201
F0
sS'topImagePositionX'
p202
F0
sS'topImagePositionY'
p203
F0
sg32
I01
sg33
I00
sS'kPaddleFlagIsGlobal'
p204
I00
sS'topImageAnchorX'
p205
F0
sS'topImageAnchorY'
p206
F0
sg37
I00
sS'topImageName'
p207
S''
sg39
F0
sg40
S'0,0,0'
p208
sg42
F0
sg43
S'0,0,0'
p209
sg45
I00
sg46
I00
sS'topImageOpacity'
p210
I0
sS'kPaddleFlagIsInvisible'
p211
I00
sg49
I00
sg50
S''
sg51
I255
sg52
S''
sg53
F844
sg54
F168
sg55
S''
sg56
F0
sS'topImageHeight'
p212
I0
sg58
I00
sg59
F0
sg60
F0
sg61
S''
sg62
S'orangekid'
p213
sS'topImageRotation'
p214
F0
sg65
I16
sg66
S''
sg90
F0
sg68
F0
sg69
S'\nfunction T:onClick ()\n\tlocal levelIndex, levelTitle = game.levelPrev ()\n\tscreen:setLevel (levelIndex, levelTitle)\nend\n'
p215
sg71
I0
sg72
S''
sg73
(lp216
sg79
S'newEscapeFromPrev'
p217
sg76
I00
sg77
F0
sg78
I1
sg75
F0
sg81
I01
sg82
I00
sS'scorePerHit'
p218
I0
sS'kPaddleFlagNoPositionLimit'
p219
I00
sg85
I00
sg86
S'/paddleHit2.caf'
p220
sg88
S''
sg83
I0
sS'topImageWidth'
p221
I0
sS'z'
F0
sg91
F28
sg89
I00
sa(dp222
g13
F0
sg14
F0
sg15
S'/buttonClick1.caf'
p223
sg17
S'<'
sg19
I255
sg20
S''
sg21
S'255,255,255'
p224
sg23
F0
sS'textureName'
p225
S''
sg24
F0
sg25
S''
sg26
F28
sg27
I01
sS'audioMoveSoundTimeout'
p226
F0
sS'topImagePositionX'
p227
F0
sS'topImagePositionY'
p228
F0
sg32
I01
sg33
I00
sS'kPaddleFlagIsGlobal'
p229
I00
sS'topImageAnchorX'
p230
F0
sS'topImageAnchorY'
p231
F0
sg37
I00
sS'topImageName'
p232
S''
sg39
F0
sg40
S'0,0,0'
p233
sg42
F0
sg43
S'0,0,0'
p234
sg45
I00
sg46
I00
sS'topImageOpacity'
p235
I0
sS'kPaddleFlagIsInvisible'
p236
I00
sg49
I00
sg50
S''
sg51
I255
sg52
S''
sg53
F885
sg54
F168
sg55
S''
sg56
F0
sS'topImageHeight'
p237
I0
sg58
I00
sg59
F0
sg60
F0
sg61
S''
sg62
S'orangekid'
p238
sS'topImageRotation'
p239
F0
sg65
I16
sg66
S''
sg90
F0
sg68
F0
sg69
S'\nfunction T:onClick ()\n\tlocal levelIndex, levelTitle = game.levelNext ()\n\tscreen:setLevel (levelIndex, levelTitle)\nend\n'
p240
sg71
I0
sg72
S''
sg73
(lp241
sg79
S'newEscapeFromNext'
p242
sg76
I00
sg77
F0
sg78
I1
sg75
F0
sg81
I01
sg82
I00
sS'scorePerHit'
p243
I0
sS'kPaddleFlagNoPositionLimit'
p244
I00
sg85
I00
sg86
S'/paddleHit2.caf'
p245
sg88
S''
sg83
I0
sS'topImageWidth'
p246
I0
sS'z'
F0
sg91
F28
sg89
I00
sa(dp247
g13
F0
sg14
F0
sg15
S'/buttonClick1.caf'
p248
sg17
S'OpenFeint'
p249
sg19
I255
sg20
S''
sg21
S'255,255,255'
p250
sg23
F0
sg24
F0
sg25
S''
sg26
F28
sg27
I01
sS'scorePerHit'
p251
I0
sS'audioMoveSoundTimeout'
p252
F0
sS'topImagePositionX'
p253
F0.02
sS'topImagePositionY'
p254
F0.5
sg32
I01
sg33
I00
sS'topImageWidth'
p255
I12
sS'topImageAnchorX'
p256
F0
sS'topImageAnchorY'
p257
F0.5
sg37
I00
sS'topImageName'
p258
S'/emoticons/openfeint.png'
p259
sg39
F0
sg40
S'0,0,0'
p260
sg42
F0
sg43
S'0,0,0'
p261
sg45
I00
sg46
I00
sS'topImageOpacity'
p262
I255
sS'kPaddleFlagNoPositionLimit'
p263
I00
sg49
I00
sg50
S''
sg51
I255
sg52
S''
sg53
F352
sg54
F88
sg55
S''
sg56
F0
sS'topImageHeight'
p264
I12
sg58
I00
sg59
F0
sg60
F0
sg61
S''
sg62
S'orangekid'
p265
sS'topImageRotation'
p266
F0
sg65
I16
sg66
S''
sS'kPaddleFlagIsInvisible'
p267
I00
sg68
F0
sg69
S'\nfunction T:onClick ()\n\tgame.openFeintLaunchDashboard ()\nend\n'
p268
sg71
I0
sg72
S''
sg73
(lp269
sg75
F0
sg76
I00
sg77
F0
sg78
I1
sg79
S'openFeint'
p270
sg81
I01
sg82
I00
sg83
I0
sS'textureName'
p271
S''
sg85
I00
sg86
S'/paddleHit2.caf'
p272
sg88
S''
sg89
I00
sg90
F0
sS'z'
F0
sg91
F90
sS'kPaddleFlagIsGlobal'
p273
I00
sa(dp274
g13
F0
sg14
F0
sg15
S''
sg17
S''
sg19
I255
sg20
S'pong'
p275
sg21
S'255,255,255'
p276
sg23
F0
sg24
F0
sg25
S'{aiLevel=5;maxSpeedY=1500;speedFactor=15;}'
p277
sg26
F100
sg27
I01
sS'audioMoveSoundTimeout'
p278
F0
sS'topImagePositionX'
p279
F0
sS'topImagePositionY'
p280
F0
sg32
I00
sg33
I00
sS'topImageWidth'
p281
I0
sS'topImageAnchorX'
p282
F0
sS'topImageAnchorY'
p283
F0
sg37
I00
sS'topImageName'
p284
S''
sg39
F0
sg40
S'0,0,0'
p285
sg42
F0
sg43
S'0,0,0'
p286
sg45
I00
sg46
I00
sS'topImageOpacity'
p287
I0
sS'kPaddleFlagNoPositionLimit'
p288
I00
sg49
I00
sg50
S''
sg51
I255
sg52
S''
sg53
F7
sg54
F110
sg55
S''
sg56
F0
sS'topImageHeight'
p289
I0
sg58
I00
sg59
F0
sg60
F0
sg61
S''
sg62
S'orangekid'
p290
sS'topImageRotation'
p291
F0
sg65
I16
sg66
S''
sS'kPaddleFlagIsInvisible'
p292
I00
sg68
F0
sg69
S''
sg71
I0
sg72
S''
sg73
(lp293
sg75
F0
sg76
I00
sg77
F0
sg78
I1
sg79
S''
sg81
I00
sg82
I00
sg83
I0
sS'textureName'
p294
S''
sg85
I00
sg86
S'/paddleHit2.caf'
p295
sg88
S''
sg89
I00
sg90
F0
sS'z'
F0
sg91
F10
sa(dp296
g13
F0
sg14
F0
sg15
S''
sg17
S''
sg19
I255
sg20
S'pong'
p297
sg21
S'255,255,255'
p298
sg23
F0
sg24
F0
sg25
S'{aiLevel=5;maxSpeedY=1500;speedFactor=15;}'
p299
sg26
F100
sg27
I01
sg56
F0
sg32
I00
sg33
I00
sg43
S'0,0,0'
p300
sg37
I00
sg39
F0
sg40
S'0,0,0'
p301
sg42
F0
sg77
F0
sg45
I00
sg46
I00
sg72
S''
sg49
I00
sg50
S''
sg51
I255
sg52
S''
sg53
I463
sg54
I172
sg55
S''
sg58
I00
sg59
F0
sg60
F0
sg61
S''
sg62
g290
sg65
I16
sg66
S''
sg90
F0
sg68
F0
sg69
S''
sg71
I0
sg73
(lp302
sg79
S''
sg76
I00
sg78
I1
sg75
F0
sg81
I00
sg82
I00
sg83
I0
sg85
I00
sg86
S'/paddleHit2.caf'
p303
sg88
S''
sg89
I00
sS'kPaddleFlagIsInvisible'
p304
I00
sS'z'
F0
sg91
F10
sa(dp305
g13
F0
sg14
F0
sg15
S''
sg17
S''
sg19
I255
sg20
S'pong'
p306
sg21
S'255,255,255'
p307
sg23
F0
sg24
F0
sg25
S'{aiLevel=5;maxSpeedY=1500;speedFactor=15;}'
p308
sg26
F100
sg27
I01
sg56
F0
sg32
I00
sg33
I00
sg43
S'0,0,0'
p309
sg37
I00
sg39
F0
sg40
S'0,0,0'
p310
sg42
F0
sg77
F0
sg45
I00
sg46
I00
sg72
S''
sg49
I00
sg50
S''
sg51
I255
sg52
S''
sg53
I487
sg54
I49
sg55
S''
sg58
I00
sg59
F0
sg60
F0
sg61
S''
sg62
g290
sg65
I16
sg66
S''
sg90
F0
sg68
F0
sg69
S''
sg71
I0
sg73
(lp311
sg79
S''
sg76
I00
sg78
I1
sg75
F0
sg81
I00
sg82
I00
sg83
I0
sg85
I00
sg86
S'/paddleHit2.caf'
p312
sg88
S''
sg89
I00
sS'kPaddleFlagIsInvisible'
p313
I00
sS'z'
F0
sg91
F10
sa(dp314
g13
F0
sg14
F0
sg15
S''
sg90
F0
sg17
S''
sg19
I255
sg20
S'pong'
p315
sg37
I00
sg23
F0
sS'textureName'
p316
S''
sg24
F0
sg25
S'{aiLevel=5;maxSpeedY=1500;speedFactor=15;}'
p317
sg26
F100
sg27
I01
sS'audioMoveSoundTimeout'
p318
F0
sS'topImagePositionX'
p319
F0
sS'topImagePositionY'
p320
F0
sg32
I00
sg33
I00
sS'topImageAnchorX'
p321
F0
sS'topImageAnchorY'
p322
F0
sg21
S'255,255,255'
p323
sS'topImageName'
p324
S''
sg39
F0
sg40
S'0,0,0'
p325
sg42
F0
sg43
S'0,0,0'
p326
sg45
I00
sg46
I00
sS'topImageOpacity'
p327
I0
sg49
I00
sg50
S''
sg51
I255
sg52
S''
sg53
F943
sg54
F79
sg55
S''
sg56
F0
sS'topImageHeight'
p328
I0
sg58
I00
sg59
F0
sg60
F0
sg61
S''
sg62
S'orangekid'
p329
sS'topImageRotation'
p330
F0
sg65
I16
sg66
S''
sS'kPaddleFlagIsInvisible'
p331
I00
sg68
F0
sg69
S''
sg71
I0
sg72
S''
sg73
(lp332
sg79
S''
sg76
I00
sg77
F0
sg78
I1
sg75
F0
sg81
I00
sg82
I00
sS'scorePerHit'
p333
I0
sS'kPaddleFlagNoPositionLimit'
p334
I00
sg85
I00
sg86
S'/paddleHit2.caf'
p335
sg88
S''
sg83
I0
sS'topImageWidth'
p336
I0
sS'z'
F0
sg91
F10
sg89
I00
sa(dp337
g13
F0
sg14
F0
sg15
S'/buttonClick1.caf'
p338
sg17
S'Music Volume: 100%'
p339
sg19
I255
sg20
S''
sg21
S'255,255,255'
p340
sg23
F0
sg24
F0
sg25
S''
sg26
F28
sg27
I01
sS'audioMoveSoundTimeout'
p341
F0
sS'topImagePositionX'
p342
F0
sS'topImagePositionY'
p343
F0
sg32
I01
sg89
I00
sg33
I00
sS'topImageAnchorX'
p344
F0
sS'topImageAnchorY'
p345
F0
sg37
I00
sS'topImageName'
p346
S''
sg39
F0
sg40
S'0,0,0'
p347
sg42
F0
sg43
S'0,0,0'
p348
sg45
I00
sg46
I00
sS'topImageOpacity'
p349
I0
sS'kPaddleFlagNoPositionLimit'
p350
I00
sg49
I00
sg50
S''
sg51
I255
sg52
S''
sg53
F96
sg54
F440
sg55
S''
sg56
F0
sS'topImageHeight'
p351
I0
sg58
I00
sg59
F0
sg60
F0
sg61
S''
sg62
S'orangekid'
p352
sS'topImageRotation'
p353
F0
sg65
I16
sg66
S''
sg90
F0
sg68
F0
sg69
S'\nfunction T:setup ()\n\tPaddle.setup (self)\n\tlocal volume = game.audioMusicVolume ()\n\tself:setLabel (string.format ("Music Volume: %d%%", volume))\nend\n'
p354
sg71
I0
sg72
S''
sg73
(lp355
sg75
F0
sg76
I00
sg77
F0
sg78
I1
sS'z'
F0
sg79
S'musicVolume'
p356
sg81
I01
sg82
I00
sg83
I0
sS'textureName'
p357
S''
sg85
I00
sg86
S'/paddleHit2.caf'
p358
sg88
S''
sS'scorePerHit'
p359
I0
sS'kPaddleFlagIsInvisible'
p360
I00
sS'topImageWidth'
p361
I0
sg91
F180
sS'kPaddleFlagIsGlobal'
p362
I00
sa(dp363
g13
F0
sg14
F0
sg15
S'/buttonClick1.caf'
p364
sg17
S'>'
sg19
I255
sg20
S''
sg21
S'255,255,255'
p365
sg23
F0
sg24
F0
sg25
S''
sg26
F28
sg27
I01
sS'audioMoveSoundTimeout'
p366
F0
sS'topImagePositionX'
p367
F0
sS'topImagePositionY'
p368
F0
sg32
I01
sg89
I00
sg33
I00
sS'topImageAnchorX'
p369
F0
sS'topImageAnchorY'
p370
F0
sg37
I00
sS'topImageName'
p371
S''
sg39
F0
sg40
S'0,0,0'
p372
sg42
F0
sg43
S'0,0,0'
p373
sg45
I00
sg46
I00
sS'topImageOpacity'
p374
I0
sS'kPaddleFlagNoPositionLimit'
p375
I00
sg49
I00
sg50
S''
sg51
I255
sg52
S''
sg53
F288
sg54
F440
sg55
S''
sg56
F0
sS'topImageHeight'
p376
I0
sg58
I00
sg59
F0
sg60
F0
sg61
S''
sg62
S'orangekid'
p377
sS'topImageRotation'
p378
F0
sg65
I16
sg66
S''
sg90
F0
sg68
F0
sg69
S'\nfunction T:onClick ()\n\tlocal paddle = level:paddleWithName ("musicVolume")\n\tlocal volume = game.audioMusicVolume ()\n\tif volume > 0 then\n\t\tvolume = volume - 10;\n\t\tgame.audioSetMusicVolume (volume)\n\tend\n\t\n\tpaddle:setLabel (string.format ("Music Volume: %d%%", volume))\nend\n'
p379
sg71
I0
sg72
S''
sg73
(lp380
sg75
F0
sg76
I00
sg77
F0
sg78
I1
sS'z'
F0
sg79
S'musicVolumeDown'
p381
sg81
I01
sg82
I00
sg83
I0
sS'textureName'
p382
S''
sg85
I00
sg86
S'/paddleHit2.caf'
p383
sg88
S''
sS'scorePerHit'
p384
I0
sS'kPaddleFlagIsInvisible'
p385
I00
sS'topImageWidth'
p386
I0
sg91
F28
sS'kPaddleFlagIsGlobal'
p387
I00
sa(dp388
g13
F0
sg14
F0
sg15
S'/buttonClick1.caf'
p389
sg17
S'<'
sg19
I255
sg20
S''
sg21
S'255,255,255'
p390
sg23
F0
sg24
F0
sg25
S''
sg26
F28
sg27
I01
sS'audioMoveSoundTimeout'
p391
F0
sS'topImagePositionX'
p392
F0
sS'topImagePositionY'
p393
F0
sg32
I01
sg89
I00
sg33
I00
sS'topImageAnchorX'
p394
F0
sS'topImageAnchorY'
p395
F0
sg37
I00
sS'topImageName'
p396
S''
sg39
F0
sg40
S'0,0,0'
p397
sg42
F0
sg43
S'0,0,0'
p398
sg45
I00
sg46
I00
sS'topImageOpacity'
p399
I0
sS'kPaddleFlagNoPositionLimit'
p400
I00
sg49
I00
sg50
S''
sg51
I255
sg52
S''
sg53
F329
sg54
F440
sg55
S''
sg56
F0
sS'topImageHeight'
p401
I0
sg58
I00
sg59
F0
sg60
F0
sg61
S''
sg62
S'orangekid'
p402
sS'topImageRotation'
p403
F0
sg65
I16
sg66
S''
sg90
F0
sg68
F0
sg69
S'\nfunction T:onClick ()\n\tlocal paddle = level:paddleWithName ("musicVolume")\n\tlocal volume = game.audioMusicVolume ()\n\tif volume < 100 then\n\t\tvolume = volume + 10;\n\t\tgame.audioSetMusicVolume (volume)\n\tend\n\t\n\tpaddle:setLabel (string.format ("Music Volume: %d%%", volume))\nend\n'
p404
sg71
I0
sg72
S''
sg73
(lp405
sg75
F0
sg76
I00
sg77
F0
sg78
I1
sS'z'
F0
sg79
S'musicVolumeUp'
p406
sg81
I01
sg82
I00
sg83
I0
sS'textureName'
p407
S''
sg85
I00
sg86
S'/paddleHit2.caf'
p408
sg88
S''
sS'scorePerHit'
p409
I0
sS'kPaddleFlagIsInvisible'
p410
I00
sS'topImageWidth'
p411
I0
sg91
F28
sS'kPaddleFlagIsGlobal'
p412
I00
sa(dp413
g13
F0
sg14
F0
sg15
S'/buttonClick1.caf'
p414
sg17
S'Sounds Volume: 100%'
p415
sg19
I255
sg20
S''
sg21
S'255,255,255'
p416
sg23
F0
sg24
F0
sg25
S''
sg26
F28
sg27
I01
sS'audioMoveSoundTimeout'
p417
F0
sS'topImagePositionX'
p418
F0
sS'topImagePositionY'
p419
F0
sg32
I01
sg89
I00
sg33
I00
sS'topImageAnchorX'
p420
F0
sS'topImageAnchorY'
p421
F0
sg37
I00
sS'topImageName'
p422
S''
sg39
F0
sg40
S'0,0,0'
p423
sg42
F0
sg43
S'0,0,0'
p424
sg45
I00
sg46
I00
sS'topImageOpacity'
p425
I0
sS'kPaddleFlagNoPositionLimit'
p426
I00
sg49
I00
sg50
S''
sg51
I255
sg52
S''
sg53
F96
sg54
F480
sg55
S''
sg56
F0
sS'topImageHeight'
p427
I0
sg58
I00
sg59
F0
sg60
F0
sg61
S''
sg62
S'orangekid'
p428
sS'topImageRotation'
p429
F0
sg65
I16
sg66
S''
sg90
F0
sg68
F0
sg69
S'\nfunction T:setup ()\n\tPaddle.setup (self)\n\tlocal volume = game.audioSoundEffectsVolume ()\n\tself:setLabel (string.format ("Sounds Volume: %d%%", volume))\nend\n'
p430
sg71
I0
sg72
S''
sg73
(lp431
sg75
F0
sg76
I00
sg77
F0
sg78
I1
sS'z'
F0
sg79
S'soundsVolume'
p432
sg81
I01
sg82
I00
sg83
I0
sS'textureName'
p433
S''
sg85
I00
sg86
S'/paddleHit2.caf'
p434
sg88
S''
sS'scorePerHit'
p435
I0
sS'kPaddleFlagIsInvisible'
p436
I00
sS'topImageWidth'
p437
I0
sg91
F180
sS'kPaddleFlagIsGlobal'
p438
I00
sa(dp439
g13
F0
sg14
F0
sg15
S'/buttonClick1.caf'
p440
sg17
S'>'
sg19
I255
sg20
S''
sg21
S'255,255,255'
p441
sg23
F0
sg24
F0
sg25
S''
sg26
F28
sg27
I01
sS'audioMoveSoundTimeout'
p442
F0
sS'topImagePositionX'
p443
F0
sS'topImagePositionY'
p444
F0
sg32
I01
sg89
I00
sg33
I00
sS'topImageAnchorX'
p445
F0
sS'topImageAnchorY'
p446
F0
sg37
I00
sS'topImageName'
p447
S''
sg39
F0
sg40
S'0,0,0'
p448
sg42
F0
sg43
S'0,0,0'
p449
sg45
I00
sg46
I00
sS'topImageOpacity'
p450
I0
sS'kPaddleFlagNoPositionLimit'
p451
I00
sg49
I00
sg50
S''
sg51
I255
sg52
S''
sg53
F288
sg54
F480
sg55
S''
sg56
F0
sS'topImageHeight'
p452
I0
sg58
I00
sg59
F0
sg60
F0
sg61
S''
sg62
S'orangekid'
p453
sS'topImageRotation'
p454
F0
sg65
I16
sg66
S''
sg90
F0
sg68
F0
sg69
S'\nfunction T:onClick ()\n\tlocal paddle = level:paddleWithName ("soundsVolume")\n\tlocal volume = game.audioSoundEffectsVolume ()\n\tif volume > 0 then\n\t\tvolume = volume - 10;\n\t\tgame.audioSetSoundEffectsVolume (volume)\n\tend\n\t\n\tpaddle:setLabel (string.format ("Sounds Volume: %d%%", volume))\nend\n'
p455
sg71
I0
sg72
S''
sg73
(lp456
sg75
F0
sg76
I00
sg77
F0
sg78
I1
sS'z'
F0
sg79
S'soundsVolumeDown'
p457
sg81
I01
sg82
I00
sg83
I0
sS'textureName'
p458
S''
sg85
I00
sg86
S'/paddleHit2.caf'
p459
sg88
S''
sS'scorePerHit'
p460
I0
sS'kPaddleFlagIsInvisible'
p461
I00
sS'topImageWidth'
p462
I0
sg91
F28
sS'kPaddleFlagIsGlobal'
p463
I00
sa(dp464
g13
F0
sg14
F0
sg15
S'/buttonClick1.caf'
p465
sg17
S'<'
sg19
I255
sg20
S''
sg21
S'255,255,255'
p466
sg23
F0
sg24
F0
sg25
S''
sg26
F28
sg27
I01
sS'audioMoveSoundTimeout'
p467
F0
sS'topImagePositionX'
p468
F0
sS'topImagePositionY'
p469
F0
sg32
I01
sg89
I00
sg33
I00
sS'topImageAnchorX'
p470
F0
sS'topImageAnchorY'
p471
F0
sg37
I00
sS'topImageName'
p472
S''
sg39
F0
sg40
S'0,0,0'
p473
sg42
F0
sg43
S'0,0,0'
p474
sg45
I00
sg46
I00
sS'topImageOpacity'
p475
I0
sS'kPaddleFlagNoPositionLimit'
p476
I00
sg49
I00
sg50
S''
sg51
I255
sg52
S''
sg53
F329
sg54
F480
sg55
S''
sg56
F0
sS'topImageHeight'
p477
I0
sg58
I00
sg59
F0
sg60
F0
sg61
S''
sg62
S'orangekid'
p478
sS'topImageRotation'
p479
F0
sg65
I16
sg66
S''
sg90
F0
sg68
F0
sg69
S'\nfunction T:onClick ()\n\tlocal paddle = level:paddleWithName ("soundsVolume")\n\tlocal volume = game.audioSoundEffectsVolume ()\n\tif volume < 100 then\n\t\tvolume = volume + 10;\n\t\tgame.audioSetSoundEffectsVolume (volume)\n\tend\n\t\n\tpaddle:setLabel (string.format ("Sounds Volume: %d%%", volume))\nend\n'
p480
sg71
I0
sg72
S''
sg73
(lp481
sg75
F0
sg76
I00
sg77
F0
sg78
I1
sS'z'
F0
sg79
S'soundsVolumeUp'
p482
sg81
I01
sg82
I00
sg83
I0
sS'textureName'
p483
S''
sg85
I00
sg86
S'/paddleHit2.caf'
p484
sg88
S''
sS'scorePerHit'
p485
I0
sS'kPaddleFlagIsInvisible'
p486
I00
sS'topImageWidth'
p487
I0
sg91
F28
sS'kPaddleFlagIsGlobal'
p488
I00
sa(dp489
g13
F0
sg14
F0
sg15
S'/buttonClick1.caf'
p490
sg90
F0
sg17
S'Back'
p491
sg19
I255
sg20
S''
sg37
I00
sg23
F0
sg24
F0
sg25
S''
sg26
F28
sg27
I01
sS'audioMoveSoundTimeout'
p492
F0
sS'topImagePositionX'
p493
F0
sS'topImagePositionY'
p494
F0
sg32
I01
sg33
I00
sS'kPaddleFlagIsGlobal'
p495
I00
sS'topImageAnchorX'
p496
F0
sS'topImageAnchorY'
p497
F0
sg21
S'255,255,255'
p498
sS'topImageName'
p499
S''
sg39
F0
sg40
S'0,0,0'
p500
sg42
F0
sg43
S'0,0,0'
p501
sg45
I00
sg46
I00
sS'topImageOpacity'
p502
I0
sS'kPaddleFlagNoPositionLimit'
p503
I00
sg49
I00
sg50
S''
sg51
I255
sg52
S''
sg53
I325
sg54
I608
sg55
S''
sg56
F0
sS'topImageHeight'
p504
I0
sg58
I00
sg59
F0
sg60
F0
sg61
S''
sg62
S'orangekid'
p505
sS'topImageRotation'
p506
F0
sg65
I16
sg66
S''
sS'kPaddleFlagIsInvisible'
p507
I00
sg68
F0
sg69
S'\nfunction T:onClick ()\n\tgame.levelMoveMainHeroToScreenNameAtPosition ("mainMenu", 150, 130)\nend\n'
p508
sg71
I0
sg72
S''
sg73
(lp509
sg75
F0
sg76
I00
sg77
F0
sg78
I1
sg79
S'newEscapeBack'
p510
sg81
I01
sg82
I00
sg83
I0
sS'textureName'
p511
S''
sg85
I00
sg86
S'/paddleHit2.caf'
p512
sg88
S''
sS'scorePerHit'
p513
I0
sS'topImageWidth'
p514
I0
sS'z'
F0
sg91
F100
sg89
I00
sa(dp515
g13
F0
sg14
F0
sg15
S'/buttonClick1.caf'
p516
sg17
S'Settings'
p517
sg19
I255
sg20
S''
sg21
S'255,255,255'
p518
sg23
F0
sg24
F0
sg25
S''
sg26
F28
sg27
I01
sS'scorePerHit'
p519
I0
sS'audioMoveSoundTimeout'
p520
F0
sS'topImagePositionX'
p521
F0
sS'topImagePositionY'
p522
F0
sg32
I01
sg33
I00
sS'topImageWidth'
p523
I0
sS'topImageAnchorX'
p524
F0
sS'topImageAnchorY'
p525
F0
sg37
I00
sS'topImageName'
p526
S''
sg39
F0
sg40
S'0,0,0'
p527
sg42
F0
sg43
S'0,0,0'
p528
sg45
I00
sg46
I00
sS'topImageOpacity'
p529
I0
sS'kPaddleFlagNoPositionLimit'
p530
I00
sg49
I00
sg50
S''
sg51
I255
sg52
S''
sg53
F352
sg54
F49
sg55
S''
sg56
F0
sS'topImageHeight'
p531
I0
sg58
I00
sg59
F0
sg60
F0
sg61
S''
sg62
S'orangekid'
p532
sS'topImageRotation'
p533
F0
sg65
I16
sg66
S''
sS'kPaddleFlagIsInvisible'
p534
I00
sg68
F0
sg69
S'\nfunction T:onClick ()\n\tgame.levelMoveMainHeroToScreenNameAtPosition ("settings", 40, 280)\nend\n'
p535
sg71
I0
sg72
S''
sg73
(lp536
sg75
F0
sg76
I00
sg77
F0
sg78
I1
sg79
S'settings'
p537
sg81
I01
sg82
I00
sg83
I0
sS'textureName'
p538
S''
sg85
I00
sg86
S'/paddleHit2.caf'
p539
sg88
S''
sg89
I00
sg90
F0
sS'z'
F0
sg91
F90
sS'kPaddleFlagIsGlobal'
p540
I00
sa(dp541
g13
F0
sg14
F0
sg15
S''
sg17
S''
sg19
I255
sg20
S'pong'
p542
sg21
S'255,255,255'
p543
sg23
F0
sg24
F0
sg25
S'{aiLevel=5;maxSpeedY=1500;speedFactor=15;}'
p544
sg26
F100
sg27
I01
sS'audioMoveSoundTimeout'
p545
F0
sS'topImagePositionX'
p546
F0
sS'topImagePositionY'
p547
F0
sg32
I00
sg89
I00
sg33
I00
sS'topImageAnchorX'
p548
F0
sS'topImageAnchorY'
p549
F0
sg37
I00
sS'topImageName'
p550
S''
sg39
F0
sg40
S'0,0,0'
p551
sg42
F0
sg43
S'0,0,0'
p552
sg45
I00
sg46
I00
sS'topImageOpacity'
p553
I0
sS'kPaddleFlagNoPositionLimit'
p554
I00
sg49
I00
sg50
S''
sg51
I255
sg52
S''
sg53
F6
sg54
F453
sg55
S''
sg56
F0
sS'topImageHeight'
p555
I0
sg58
I00
sg59
F0
sg60
F0
sg61
S''
sg62
S'orangekid'
p556
sS'topImageRotation'
p557
F0
sg65
I16
sg66
S''
sg90
F0
sg68
F0
sg69
S''
sg71
I0
sg72
S''
sg73
(lp558
sg75
F0
sg76
I00
sg77
F0
sg78
I1
sS'z'
F0
sg79
S''
sg81
I00
sg82
I00
sg83
I0
sS'textureName'
p559
S''
sg85
I00
sg86
S'/paddleHit2.caf'
p560
sg88
S''
sS'scorePerHit'
p561
I0
sS'kPaddleFlagIsInvisible'
p562
I00
sS'topImageWidth'
p563
I0
sg91
F10
sS'kPaddleFlagIsGlobal'
p564
I00
sa(dp565
g13
F0
sg14
F0
sg15
S''
sg17
S''
sg19
I255
sg20
S'pong'
p566
sg21
S'255,255,255'
p567
sg23
F0
sg24
F0
sg25
S'{aiLevel=5;maxSpeedY=1500;speedFactor=15;}'
p568
sg26
F100
sg27
I01
sS'audioMoveSoundTimeout'
p569
F0
sS'topImagePositionX'
p570
F0
sS'topImagePositionY'
p571
F0
sg32
I00
sg89
I00
sg33
I00
sS'topImageAnchorX'
p572
F0
sS'topImageAnchorY'
p573
F0
sg37
I00
sS'topImageName'
p574
S''
sg39
F0
sg40
S'0,0,0'
p575
sg42
F0
sg43
S'0,0,0'
p576
sg45
I00
sg46
I00
sS'topImageOpacity'
p577
I0
sS'kPaddleFlagNoPositionLimit'
p578
I00
sg49
I00
sg50
S''
sg51
I255
sg52
S''
sg53
F461
sg54
F384
sg55
S''
sg56
F0
sS'topImageHeight'
p579
I0
sg58
I00
sg59
F0
sg60
F0
sg61
S''
sg62
S'orangekid'
p580
sS'topImageRotation'
p581
F0
sg65
I16
sg66
S''
sg90
F0
sg68
F0
sg69
S''
sg71
I0
sg72
S''
sg73
(lp582
sg75
F0
sg76
I00
sg77
F0
sg78
I1
sS'z'
F0
sg79
S''
sg81
I00
sg82
I00
sg83
I0
sS'textureName'
p583
S''
sg85
I00
sg86
S'/paddleHit2.caf'
p584
sg88
S''
sS'scorePerHit'
p585
I0
sS'kPaddleFlagIsInvisible'
p586
I00
sS'topImageWidth'
p587
I0
sg91
F10
sS'kPaddleFlagIsGlobal'
p588
I00
sa(dp589
g13
F0
sg14
F0
sg15
S'/buttonClick1.caf'
p590
sg90
F0
sg17
S'Back'
p591
sg19
I255
sg20
S''
sg37
I00
sg23
F0
sg24
F0
sg25
S''
sg26
F28
sg27
I01
sS'audioMoveSoundTimeout'
p592
F0
sS'topImagePositionX'
p593
F0
sS'topImagePositionY'
p594
F0
sg32
I01
sg33
I00
sS'kPaddleFlagIsGlobal'
p595
I00
sS'topImageAnchorX'
p596
F0
sS'topImageAnchorY'
p597
F0
sg21
S'255,255,255'
p598
sS'topImageName'
p599
S''
sg39
F0
sg40
S'0,0,0'
p600
sg42
F0
sg43
S'0,0,0'
p601
sg45
I00
sg46
I00
sS'topImageOpacity'
p602
I0
sS'kPaddleFlagNoPositionLimit'
p603
I00
sg49
I00
sg50
S''
sg51
I255
sg52
S''
sg53
F160
sg54
F999
sg55
S''
sg56
F0
sS'topImageHeight'
p604
I0
sg58
I00
sg59
F0
sg60
F0
sg61
S''
sg62
S'orangekid'
p605
sS'topImageRotation'
p606
F0
sg65
I16
sg66
S''
sg169
I00
sg68
F0
sg69
S'\nfunction T:onClick ()\n\tgame.levelMoveMainHeroToScreenNameAtPosition ("mainMenu", 150, 130)\nend\n'
p607
sg71
I0
sg72
S''
sg73
(lp608
sg75
F0
sg76
I00
sg77
F0
sg78
I1
sg79
S'newEscapeBack'
p609
sg81
I01
sg82
I00
sg83
I0
sS'textureName'
p610
S''
sg85
I00
sg86
S'/paddleHit2.caf'
p611
sg88
S''
sS'scorePerHit'
p612
I0
sS'topImageWidth'
p613
I0
sS'z'
F0
sg91
F100
sg89
I00
sa(dp614
g13
F0
sg14
F0
sg15
S'/buttonClick1.caf'
p615
sg90
F0
sg17
S'(C) Copyright 2010 Kismik -<'
p616
sg19
I255
sg20
S''
sg37
I00
sg23
F0
sg24
F0
sg25
S''
sg26
F28
sg27
I01
sS'audioMoveSoundTimeout'
p617
F0
sS'topImagePositionX'
p618
F0.5
sS'topImagePositionY'
p619
F0.5
sg32
I01
sg33
I00
sS'kPaddleFlagIsGlobal'
p620
I00
sS'topImageAnchorX'
p621
F0.5
sS'topImageAnchorY'
p622
F0.5
sg21
S'255,255,255'
p623
sS'topImageName'
p624
S''
sg39
F0
sg40
S'0,0,0'
p625
sg42
F0
sg43
S'0,0,0'
p626
sg45
I00
sg46
I00
sS'topImageOpacity'
p627
I255
sS'kPaddleFlagNoPositionLimit'
p628
I00
sg49
I00
sg50
S''
sg51
I255
sg52
S''
sg53
F316
sg54
F836
sg55
S''
sg56
F0
sS'topImageHeight'
p629
I47
sg58
I00
sg59
F0
sg60
F0
sg61
S''
sg62
S'orangekid'
p630
sS'topImageRotation'
p631
F0
sg65
I16
sg66
S''
sg67
I00
sg68
F0
sg69
S'\nfunction T:onClick ()\n\tgame.openKismikURL ()\nend\n'
p632
sg71
I0
sg72
S''
sg73
(lp633
sg75
F0
sg76
I00
sg77
F0
sg78
I1
sg79
S'copyright'
p634
sg81
I01
sg82
I00
sg83
I0
sS'textureName'
p635
S''
sg85
I00
sg86
S'/paddleHit2.caf'
p636
sg88
S''
sS'scorePerHit'
p637
I0
sS'topImageWidth'
p638
I128
sS'z'
F0
sg91
F210
sg89
I00
sa(dp639
g13
F0
sg14
F0
sg15
S'/buttonClick1.caf'
p640
sg17
S'Training Field'
p641
sg19
I255
sg20
S''
sg21
S'255,255,255'
p642
sg23
F0
sg24
F0
sg25
S''
sg26
F28
sg27
I01
sS'audioMoveSoundTimeout'
p643
F0
sS'topImagePositionX'
p644
F0
sS'topImagePositionY'
p645
F0
sg32
I01
sg33
I00
sS'kPaddleFlagIsGlobal'
p646
I00
sS'topImageAnchorX'
p647
F0
sS'topImageAnchorY'
p648
F0
sg37
I00
sS'topImageName'
p649
S''
sg39
F0
sg40
S'0,0,0'
p650
sg42
F0
sg43
S'0,0,0'
p651
sg45
I00
sg46
I00
sS'topImageOpacity'
p652
I0
sS'kPaddleFlagIsInvisible'
p653
I00
sS'kPaddleFlagNoPositionLimit'
p654
I00
sg49
I00
sg50
S''
sg51
I255
sg52
S''
sg53
F82
sg54
F207
sg55
S''
sg56
F0
sS'topImageHeight'
p655
I0
sg58
I00
sg59
F0
sg60
F0
sg61
S''
sg62
S'orangekid'
p656
sS'topImageRotation'
p657
F0
sg65
I16
sg66
S''
sg90
F0
sg68
F0
sg69
S'\nfunction T:onClick ()\n\tgame.levelMoveMainHeroToScreenNameAtPosition ("trainingFieldMove", 200, 30)\nend\n'
p658
sg71
I0
sg72
S''
sg73
(lp659
sg75
F0
sg76
I00
sg77
F0
sg78
I1
sg79
S'trainingFields'
p660
sg81
I01
sg82
I00
sg83
I0
sS'textureName'
p661
S''
sg85
I00
sg86
S'/paddleHit2.caf'
p662
sg88
S''
sS'scorePerHit'
p663
I0
sS'topImageWidth'
p664
I0
sS'z'
F0
sg91
F203
sg89
I00
sa(dp665
g13
F0
sg14
F0
sg15
S'/buttonClick1.caf'
p666
sg17
S'Back'
p667
sg19
I255
sg20
S''
sg21
S'255,255,255'
p668
sg23
F0
sg24
F0
sg25
S''
sg26
F28
sg27
I01
sg492
F0
sg493
F0
sg494
F0
sg32
I01
sg33
I00
sS'kPaddleFlagIsGlobal'
p669
I00
sg496
F0
sg497
F0
sg37
I00
sg499
S''
sg39
F0
sg40
S'0,0,0'
p670
sg42
F0
sg43
S'0,0,0'
p671
sg45
I00
sg46
I00
sg502
I0
sg507
I00
sg503
I00
sg49
I00
sg50
S''
sg51
I255
sg52
S''
sg53
F-472
sg54
F-95
sg55
S''
sg56
F0
sg504
I0
sg58
I00
sg59
F0
sg60
F0
sg61
S''
sg62
S'orangekid'
p672
sg506
F0
sg65
I16
sg66
S''
sg90
F0
sg68
F0
sg69
S'\nfunction T:onClick ()\n\tgame.levelMoveMainHeroToScreenNameAtPosition ("mainMenu", 150, 130)\nend\n'
p673
sg71
I0
sg72
S''
sg73
(lp674
sg75
F0
sg76
I00
sg77
F0
sg78
I1
sg79
S'trainingFieldMoveBack'
p675
sg81
I01
sg82
I00
sg83
I0
sg511
S''
sg85
I00
sg86
S'/paddleHit2.caf'
p676
sg88
S''
sS'scorePerHit'
p677
I0
sg514
I0
sS'z'
F0
sg91
F83
sg89
I00
sa(dp678
S'maxX'
p679
F0
sS'maxY'
p680
F0
sS'audioClickSound'
p681
S''
sS'labelText'
p682
S''
sS'aiDefensiveKind'
p683
S''
sS'colorColor1'
p684
S'255,255,0'
p685
sS'energy'
p686
F0
sS'textureName'
p687
S''
sS'elasticity'
p688
F0
sS'aiDefensiveConfig'
p689
S''
sS'height'
p690
F20
sS'kPaddleFlagEnabled'
p691
I01
sS'audioMoveSoundTimeout'
p692
F1
sS'topImagePositionX'
p693
F0.5
sS'topImagePositionY'
p694
F0.5
sS'kPaddleFlagSelected'
p695
I00
sS'kPaddleFlagScriptOnExit'
p696
I00
sS'kPaddleFlagIsGlobal'
p697
I00
sS'topImageAnchorX'
p698
F0.5
sS'topImageAnchorY'
p699
F0.5
sS'kPaddleFlagScriptOnSideToggled'
p700
I00
sS'topImageName'
p701
S''
sS'proximityAccelerationY'
p702
F30
sS'colorColor2'
p703
S'255,128,0'
p704
sS'minX'
p705
F0
sS'labelColor'
p706
S'0,0,0'
p707
sS'aiOffensiveConfig'
p708
S''
sS'kPaddleFlagScriptOnEnter'
p709
I00
sS'topImageOpacity'
p710
I255
sS'kPaddleFlagIsInvisible'
p711
I00
sS'kPaddleFlagBlockTouches'
p712
I00
sS'audioInSound'
p713
S''
sS'colorOpacity'
p714
I255
sS'labelOpacity'
p715
I255
sS'positionX'
p716
F-102
sS'positionY'
p717
F-312
sS'audioMoveSound'
p718
S''
sS'proximityAccelerationX'
p719
F30
sS'topImageHeight'
p720
I0
sS'kPaddleFlagScriptOnHeroInProxymityArea'
p721
I00
sS'proximityWidth'
p722
F50
sS'colorTintToDuration'
p723
F0.5
sS'audioSoundLoop'
p724
S''
sS'labelFont'
p725
S'orangekid'
p726
sS'topImageRotation'
p727
F0
sS'labelFontSize'
p728
I16
sS'audioOutSound'
p729
S''
sS'speedY'
p730
F0
sS'speedX'
p731
F0
sS'scripts'
p732
S''
sS'proximityMode'
p733
I1
sS'aiOffensiveKind'
p734
S''
sS'lights'
p735
(lp736
sS'proximityHeight'
p737
F50
sS'minY'
p738
F0
sS'kind'
p739
I1
sS'name'
p740
S'repulsor'
p741
sS'kPaddleFlagIsButton'
p742
I00
sS'kPaddleFlagScriptHandleTouches'
p743
I00
sS'kPaddleFlagScriptUpdate'
p744
I00
sS'colorMode'
p745
I1
sS'kPaddleFlagNoPositionLimit'
p746
I00
sS'kPaddleFlagScriptApplyProximityInfluenceToHero'
p747
I00
sS'kPaddleFlagCollisionDisabled'
p748
I00
sS'audioHitSound'
p749
S'/paddleHit1.caf'
p750
sS'extensions'
p751
S''
sS'scorePerHit'
p752
I0
sS'topImageWidth'
p753
I0
sS'z'
F0
sS'width'
p754
F20
sS'kPaddleFlagOffensiveSide'
p755
I00
sa(dp756
g679
F0
sg680
F0
sg681
S''
sg682
S''
sg683
S''
sg684
S'216,16,18'
p757
sg686
F0
sg687
S''
sg688
F0
sg689
S''
sg690
F20
sg691
I01
sg692
F1
sg693
F0.5
sg694
F0.5
sg695
I00
sg755
I00
sg696
I00
sg698
F0.5
sg699
F0.5
sg700
I00
sg701
S''
sg702
F0
sg703
S'0,0,0'
p758
sg705
F0
sg706
S'0,0,0'
p759
sg708
S''
sg709
I00
sg710
I255
sg712
I00
sg713
S''
sg714
I255
sg715
I255
sg716
I-160
sg717
I-261
sg718
S''
sg719
F0
sg720
I0
sg721
I00
sg722
F0
sg723
F0
sg724
S''
sg725
S'orangekid'
p760
sg727
F0
sg728
I16
sg729
S''
sg711
I00
sg731
F0
sg732
S''
sg733
I0
sg734
S''
sg735
(lp761
sg737
F0
sg753
I0
sg738
F0
sg739
I1
sg740
S''
sg742
I00
sg743
I00
sg744
I00
sS'scorePerHit'
p762
I0
sg746
I00
sg747
I00
sg748
I00
sg749
S'/paddleHit1.caf'
p763
sg751
S''
sg745
I0
sg730
F0
sS'z'
F0
sg754
F20
sS'kPaddleFlagIsGlobal'
p764
I00
sa(dp765
g679
F0
sg680
F0
sg681
S''
sg682
S''
sg683
S''
sg684
S'216,16,18'
p766
sg686
F0
sg687
S''
sg688
F0
sg689
S''
sg690
F20
sg691
I01
sg692
F1
sg693
F0.5
sg694
F0.5
sg695
I00
sg755
I00
sg696
I00
sg698
F0.5
sg699
F0.5
sg700
I00
sg701
S''
sg702
F0
sg703
S'0,0,0'
p767
sg705
F0
sg706
S'0,0,0'
p768
sg708
S''
sg709
I00
sg710
I255
sg712
I00
sg713
S''
sg714
I255
sg715
I255
sg716
I-346
sg717
I-107
sg718
S''
sg719
F0
sg720
I0
sg721
I00
sg722
F0
sg723
F0
sg724
S''
sg725
S'orangekid'
p769
sg727
F0
sg728
I16
sg729
S''
sg711
I00
sg731
F0
sg732
S''
sg733
I0
sg734
S''
sg735
(lp770
sg737
F0
sg753
I0
sg738
F0
sg739
I1
sg740
S''
sg742
I00
sg743
I00
sg744
I00
sS'scorePerHit'
p771
I0
sg746
I00
sg747
I00
sg748
I00
sg749
S'/paddleHit1.caf'
p772
sg751
S''
sg745
I0
sg730
F0
sS'z'
F0
sg754
F20
sS'kPaddleFlagIsGlobal'
p773
I00
sa(dp774
g679
F0
sg680
F0
sg681
S''
sg682
S''
sg683
S''
sg684
S'216,16,18'
p775
sg686
F0
sg687
S''
sg688
F0
sg689
S''
sg690
F20
sg691
I01
sg692
F1
sg693
F0.5
sg694
F0.5
sg695
I00
sg755
I00
sg696
I00
sg698
F0.5
sg699
F0.5
sg700
I00
sg701
S''
sg702
F0
sg703
S'0,0,0'
p776
sg705
F0
sg706
S'0,0,0'
p777
sg708
S''
sg709
I00
sg710
I255
sg712
I00
sg713
S''
sg714
I255
sg715
I255
sg716
I-425
sg717
I-156
sg718
S''
sg719
F0
sg720
I0
sg721
I00
sg722
F0
sg723
F0
sg724
S''
sg725
S'orangekid'
p778
sg727
F0
sg728
I16
sg729
S''
sg711
I00
sg731
F0
sg732
S''
sg733
I0
sg734
S''
sg735
(lp779
sg737
F0
sg753
I0
sg738
F0
sg739
I1
sg740
S''
sg742
I00
sg743
I00
sg744
I00
sS'scorePerHit'
p780
I0
sg746
I00
sg747
I00
sg748
I00
sg749
S'/paddleHit1.caf'
p781
sg751
S''
sg745
I0
sg730
F0
sS'z'
F0
sg754
F20
sS'kPaddleFlagIsGlobal'
p782
I00
sa(dp783
g679
F0
sg680
F0
sg681
S''
sg682
S''
sg683
S''
sg684
S'216,16,18'
p784
sg686
F0
sg687
S''
sg688
F0
sg689
S''
sg690
F20
sg691
I01
sg692
F1
sg693
F0.5
sg694
F0.5
sg695
I00
sg755
I00
sg696
I00
sg698
F0.5
sg699
F0.5
sg700
I00
sg701
S''
sg702
F0
sg703
S'0,0,0'
p785
sg705
F0
sg706
S'0,0,0'
p786
sg708
S''
sg709
I00
sg710
I255
sg712
I00
sg713
S''
sg714
I255
sg715
I255
sg716
I-416
sg717
I-262
sg718
S''
sg719
F0
sg720
I0
sg721
I00
sg722
F0
sg723
F0
sg724
S''
sg725
S'orangekid'
p787
sg727
F0
sg728
I16
sg729
S''
sg711
I00
sg731
F0
sg732
S''
sg733
I0
sg734
S''
sg735
(lp788
sg737
F0
sg753
I0
sg738
F0
sg739
I1
sg740
S''
sg742
I00
sg743
I00
sg744
I00
sS'scorePerHit'
p789
I0
sg746
I00
sg747
I00
sg748
I00
sg749
S'/paddleHit1.caf'
p790
sg751
S''
sg745
I0
sg730
F0
sS'z'
F0
sg754
F20
sS'kPaddleFlagIsGlobal'
p791
I00
sa(dp792
g679
F0
sg680
F0
sg681
S''
sg682
S''
sg683
S''
sg684
S'216,16,18'
p793
sg686
F0
sg687
S''
sg688
F0
sg689
S''
sg690
F20
sg691
I01
sg692
F1
sg693
F0.5
sg694
F0.5
sg695
I00
sg755
I00
sg696
I00
sg698
F0.5
sg699
F0.5
sg700
I00
sg701
S''
sg702
F-20
sg703
S'128,0,128'
p794
sg705
F0
sg706
S'0,0,0'
p795
sg708
S''
sg709
I00
sg710
I255
sg712
I00
sg713
S''
sg714
I255
sg715
I255
sg716
F-443
sg717
F-327
sg718
S''
sg719
F-20
sg720
I0
sg721
I00
sg722
F50
sg723
F0.5
sg724
S''
sg725
S'orangekid'
p796
sg727
F0
sg728
I16
sg729
S''
sg711
I00
sg731
F0
sg732
S''
sg733
I1
sg734
S''
sg735
(lp797
sg737
F50
sg753
I0
sg738
F0
sg739
I1
sg740
S'attractor'
p798
sg742
I00
sg743
I00
sg744
I00
sS'scorePerHit'
p799
I0
sg746
I00
sg747
I00
sg748
I00
sg749
S'/paddleHit1.caf'
p800
sg751
S''
sg745
I1
sg730
F0
sS'z'
F0
sg754
F20
sS'kPaddleFlagIsGlobal'
p801
I00
sa(dp802
g679
F0
sg680
F0
sg681
S''
sg730
F0
sg682
S''
sg683
S''
sg700
I00
sg686
F0
sg687
S''
sg688
F0
sg689
S''
sg690
F20
sg691
I01
sg692
F1
sg693
F0.5
sg694
F0.5
sg695
I00
sg696
I00
sS'kPaddleFlagIsGlobal'
p803
I00
sg698
F0.5
sg699
F0.5
sg684
S'255,42,0'
p804
sg701
S''
sg702
F0
sg703
S'255,157,0'
p805
sg705
F0
sg706
S'0,0,0'
p806
sg708
S''
sg709
I00
sg710
I255
sg712
I00
sg713
S''
sg714
I180
sg715
I255
sg716
I-268
sg717
I-221
sg718
S''
sg719
F0
sg720
I0
sg721
I00
sg722
F0
sg723
F0.5
sg724
S''
sg725
S'orangekid'
p807
sg727
F0
sg728
I16
sg729
S''
sg711
I00
sg731
F0
sg732
S''
sg733
I0
sg734
S''
sg735
(lp808
sg737
F0
sg738
F0
sg739
I1
sg740
S'target'
p809
sg742
I00
sg743
I00
sg744
I00
sS'scorePerHit'
p810
I0
sg746
I00
sg747
I00
sg748
I01
sg749
S''
sg751
S''
sg745
I1
sg753
I0
sS'z'
F10
sg754
F20
sg755
I00
sa(dp811
g679
F0
sg680
F0
sg681
S''
sg682
S''
sg683
S'pong'
p812
sg684
S'255,255,255'
p813
sg686
F0
sg687
S''
sg688
F0
sg689
S''
sg690
F100
sg691
I01
sg692
F1
sg693
F0.5
sg694
F0.5
sg695
I00
sg696
I00
sg698
F0.5
sg699
F0.5
sg700
I00
sg701
S''
sg702
F0
sg703
S'0,0,0'
p814
sg705
F0
sg706
S'0,0,0'
p815
sg708
S''
sg709
I00
sg710
I255
sg712
I00
sg713
S''
sg714
I255
sg715
I255
sg716
I-485
sg717
I-264
sg718
S''
sg719
F0
sg720
I0
sg721
I00
sg722
F0
sg723
F0
sg724
S''
sg725
S'orangekid'
p816
sg727
F0
sg728
I16
sg729
S''
sg730
F0
sg731
F0
sg732
S''
sg745
I0
sg733
I0
sg734
S''
sg735
(lp817
sg737
F0
sg753
I0
sg738
F0
sg739
I1
sg740
S''
sg742
I00
sg743
I00
sg744
I00
sS'scorePerHit'
p818
I0
sg746
I00
sg747
I00
sg748
I00
sg749
S'/paddleHit2.caf'
p819
sg751
S''
sg755
I00
sg711
I00
sS'z'
F0
sg754
F10
sS'kPaddleFlagIsGlobal'
p820
I00
sa(dp821
g679
F0
sg680
F0
sg681
S''
sg682
S''
sg683
S''
sg700
I00
sg686
F0
sg687
S''
sg688
F0
sg689
S''
sg690
F40
sg691
I01
sg692
F1
sg693
F0.5
sg694
F0.5
sg695
I00
sg696
I00
sg698
F0.5
sg699
F0.5
sg684
S'255,255,255'
p822
sg701
S''
sg702
F0
sg703
S'128,186,198'
p823
sg705
F0
sg706
S'0,0,0'
p824
sg708
S''
sg709
I00
sg710
I255
sg712
I00
sg713
S''
sg714
I180
sg715
I255
sg716
I-278
sg717
I-232
sg718
S''
sg719
F0
sg720
I0
sg721
I00
sg722
F0
sg723
F0
sg724
S''
sg725
S'orangekid'
p825
sg727
F0
sg728
I16
sg729
S''
sg730
F0
sg731
F0
sg732
S''
sg745
I0
sg733
I0
sg734
S''
sg735
(lp826
sg737
F0
sg753
I0
sg738
F0
sg739
I1
sg740
S''
sg742
I00
sg743
I00
sg744
I00
sS'scorePerHit'
p827
I0
sg746
I00
sg747
I00
sg748
I01
sg749
S''
sg751
S''
sg755
I00
sg711
I00
sS'z'
F5
sg754
F40
sS'kPaddleFlagIsGlobal'
p828
I00
sa(dp829
g679
F0
sg680
F0
sg681
S''
sg682
S''
sg683
S''
sg684
S'255,18,0'
p830
sg686
F0
sg687
S''
sg688
F0
sg689
S''
sg690
F60
sg691
I01
sg692
F1
sg693
F0.5
sg694
F0.5
sg695
I00
sg696
I00
sg698
F0.5
sg699
F0.5
sg700
I00
sg701
S''
sg702
F0
sg703
S'128,186,198'
p831
sg705
F0
sg706
S'0,0,0'
p832
sg708
S''
sg709
I00
sg710
I255
sg712
I00
sg713
S''
sg714
I180
sg715
I255
sg716
I-287
sg717
I-242
sg718
S''
sg719
F0
sg720
I0
sg721
I00
sg722
F0
sg723
F0
sg724
S''
sg725
S'orangekid'
p833
sg727
F0
sg728
I16
sg729
S''
sg730
F0
sg731
F0
sg732
S''
sg745
I0
sg733
I0
sg734
S''
sg735
(lp834
sg737
F0
sg753
I0
sg738
F0
sg739
I1
sg740
S''
sg742
I00
sg743
I00
sg744
I00
sS'scorePerHit'
p835
I0
sg746
I00
sg747
I00
sg748
I01
sg749
S''
sg751
S''
sg755
I00
sg711
I00
sS'z'
F0
sg754
F60
sS'kPaddleFlagIsGlobal'
p836
I00
sa(dp837
g13
F0
sg14
F0
sg15
S'/buttonClick1.caf'
p838
sg17
S'Help'
p839
sg19
I255
sg20
S''
sg37
I00
sg23
F0
sg24
F0
sg25
S''
sg26
F28
sg27
I01
sS'scorePerHit'
p840
I0
sg252
F0
sg253
F0
sg254
F0
sg32
I01
sg33
I00
sg255
I0
sg256
F0
sg257
F0
sg21
S'255,255,255'
p841
sg258
S''
sg39
F0
sg40
S'0,0,0'
p842
sg42
F0
sg43
S'0,0,0'
p843
sg45
I00
sg46
I00
sg262
I0
sg263
I00
sg49
I00
sg50
S''
sg51
I255
sg52
S''
sg53
F318
sg54
F127
sg55
S''
sg56
F0
sg264
I0
sg58
I00
sg59
F0
sg60
F0
sg61
S''
sg62
S'orangekid'
p844
sg266
F0
sg65
I16
sg66
S''
sg90
F0
sg68
F0
sg69
S'\nfunction T:onClick ()\n\tgame.levelMoveMainHeroToScreenNameAtPosition ("help", 40, 130)\nend\n'
p845
sg71
I0
sg72
S''
sg73
(lp846
sg75
F0
sg76
I00
sg77
F0
sg78
I1
sg79
S'help'
p847
sg81
I01
sg82
I00
sg83
I0
sg271
S''
sg85
I00
sg86
S'/paddleHit2.caf'
p848
sg88
S''
sg89
I00
sg267
I00
sS'z'
F0
sg91
F90
sS'kPaddleFlagIsGlobal'
p849
I00
sa(dp850
g13
F0
sg14
F0
sg15
S'/buttonClick1.caf'
p851
sg17
S'View Trailer'
p852
sg19
I255
sg20
S''
sg21
S'255,255,255'
p853
sg23
F0
sg24
F0
sg25
S''
sg26
F28
sg27
I01
sg252
F0
sg253
F0.01
sg254
F0.5
sg32
I01
sg89
I00
sg33
I00
sg256
F0
sg257
F0.5
sg37
I00
sg258
S''
sg39
F0
sg40
S'0,128,255'
p854
sg42
F0
sg43
S'0,0,0'
p855
sg45
I00
sg46
I00
sg262
I255
sg263
I00
sg49
I00
sg50
S''
sg51
I255
sg52
S''
sg53
F318
sg54
F207
sg55
S''
sg56
F0
sg264
I16
sg58
I00
sg59
F0
sg60
F0.90000000000000002
sg61
S''
sg62
S'orangekid'
p856
sg266
F0
sg65
I16
sg66
S''
sg267
I00
sg68
F0
sg69
S'\nfunction T:onClick ()\n\tself:setEnabled (false)\n\tgame.playBe2Trailer ()\nend\n'
p857
sg71
I0
sg72
S''
sg73
(lp858
sg75
F0
sg76
I00
sg77
F0
sg78
I1
sS'z'
F0
sg79
S'viewTrailer'
p859
sg81
I01
sg82
I00
sg83
I0
sg271
S''
sg85
I00
sg86
S'/paddleHit2.caf'
p860
sg88
S''
sg840
I0
sg90
F0
sg255
I16
sg91
F90
sS'kPaddleFlagIsGlobal'
p861
I00
sa(dp862
g13
F0
sg14
F0
sg15
S'/buttonClick1.caf'
p863
sg17
S''
sg19
I255
sg20
S''
sg37
I00
sg23
F0
sg175
S''
sg24
F0
sg25
S''
sg26
F90
sg27
I01
sg176
F0
sg177
F0
sg178
F0
sg32
I01
sg89
I00
sg33
I00
sg180
F0
sg181
F0
sg21
S'255,255,255'
p864
sg182
S''
sg39
F0
sg40
S'0,0,0'
p865
sg42
F0
sg43
S'0,0,0'
p866
sg45
I00
sg46
I01
sg185
I0
sg49
I00
sg50
S''
sg51
I255
sg52
S''
sg53
F698
sg54
F210
sg55
S''
sg56
F0
sg187
I0
sg58
I00
sg59
F0
sg60
F0
sg61
S''
sg62
S'orangekid'
p867
sg189
F0
sg65
I16
sg66
S''
sg186
I00
sg68
F0
sg69
S'\nfunction T:setup ()\n\tPaddle.setup (self)\n\n\tself:updateImage ()\nend\n\nfunction T:updateImage ()\n\tlocal levelIndex, levelTitle = game.levelCurrentAvailable ()\n\tself:setTopImage (game.levelThumbnailImageName (levelIndex), 0.5, 0.5, 128, 86, 0.5, 0.5, 255, 0)\nend\n\nfunction T:onEnter ()\n\tPaddle.onEnter (self)\n\tself:updateImage ()\nend\n\nfunction T:onClick ()\n\tscreen:startLevel ()\nend\n'
p868
sg71
I0
sg72
S''
sg73
(lp869
sg79
S'newEscapeFromThumbnailImage'
p870
sg76
I00
sg77
F0
sg78
I1
sS'z'
F0
sg75
F0
sg81
I01
sg82
I00
sg193
I0
sg194
I00
sg85
I00
sg86
S'/paddleHit2.caf'
p871
sg88
S''
sg83
I0
sg90
F0
sg196
I0
sg91
F132
sS'kPaddleFlagIsGlobal'
p872
I00
sa(dp873
S'maxX'
p874
F0
sS'maxY'
p875
F0
sS'audioClickSound'
p876
S''
sS'labelText'
p877
S''
sS'aiDefensiveKind'
p878
S''
sS'colorColor1'
p879
S'255,0,0'
p880
sS'energy'
p881
F0
sS'textureName'
p882
S''
sS'elasticity'
p883
F0
sS'aiDefensiveConfig'
p884
S''
sS'height'
p885
F10
sS'kPaddleFlagEnabled'
p886
I01
sS'audioMoveSoundTimeout'
p887
F1
sS'topImagePositionX'
p888
F0.5
sS'topImagePositionY'
p889
F0.5
sS'kPaddleFlagScriptHandleTouches'
p890
I00
sS'kPaddleFlagOffensiveSide'
p891
I00
sS'kPaddleFlagScriptOnExit'
p892
I00
sS'topImageAnchorX'
p893
F0.5
sS'topImageAnchorY'
p894
F0.5
sS'kPaddleFlagScriptOnSideToggled'
p895
I00
sS'topImageName'
p896
S'/badge3042.png'
p897
sS'proximityAccelerationY'
p898
F0
sS'colorColor2'
p899
S'0,0,0'
p900
sS'minX'
p901
F0
sS'labelColor'
p902
S'0,0,0'
p903
sS'aiOffensiveConfig'
p904
S''
sS'kPaddleFlagScriptOnEnter'
p905
I00
sS'topImageOpacity'
p906
I180
sS'kPaddleFlagBlockTouches'
p907
I00
sS'audioInSound'
p908
S''
sS'colorOpacity'
p909
I0
sS'labelOpacity'
p910
I255
sS'positionX'
p911
F51
sS'positionY'
p912
F54
sS'audioMoveSound'
p913
S''
sS'proximityAccelerationX'
p914
F0
sS'topImageHeight'
p915
I128
sS'kPaddleFlagScriptOnHeroInProxymityArea'
p916
I00
sS'proximityWidth'
p917
F0
sS'colorTintToDuration'
p918
F0
sS'audioSoundLoop'
p919
S''
sS'labelFont'
p920
S'orangekid'
p921
sS'topImageRotation'
p922
F35
sS'labelFontSize'
p923
I16
sS'audioOutSound'
p924
S''
sS'kPaddleFlagIsInvisible'
p925
I00
sS'speedX'
p926
F0
sS'scripts'
p927
S'function T:setup ()\n\tPaddle.setup (self)\n\n\tif not game.isFullQuestCompleted () then\n\t\tself:setEnabled (false)\n\telse\n\t\tself:actionPulseFromScaleMinMaxDelayDurationTag (0.9, 1.1, 0, 2, 0)\n\t\tself:actionRotateByAngleDurationForeverTag (360, 10, true, 0)\n\tend\nend\n'
p928
sS'proximityMode'
p929
I0
sS'aiOffensiveKind'
p930
S''
sS'lights'
p931
(lp932
sS'proximityHeight'
p933
F0
sS'kPaddleFlagSelected'
p934
I00
sS'minY'
p935
F0
sS'kind'
p936
I1
sS'z'
F-1
sS'name'
p937
S'badge'
p938
sS'kPaddleFlagIsButton'
p939
I00
sS'kPaddleFlagScriptUpdate'
p940
I00
sS'scorePerHit'
p941
I150
sS'kPaddleFlagNoPositionLimit'
p942
I00
sS'kPaddleFlagScriptApplyProximityInfluenceToHero'
p943
I00
sS'kPaddleFlagCollisionDisabled'
p944
I01
sS'audioHitSound'
p945
S''
sS'extensions'
p946
S''
sS'colorMode'
p947
I0
sS'speedY'
p948
F0
sS'topImageWidth'
p949
I128
sS'width'
p950
F10
sS'kPaddleFlagIsGlobal'
p951
I00
sa(dp952
g13
F0
sg14
F0
sg15
S'/buttonClick1.caf'
p953
sg17
S'H.U.D.'
p954
sg19
I255
sg20
S''
sg21
S'255,255,255'
p955
sg23
F0
sg24
F0
sg25
S''
sg26
F28
sg27
I01
sg252
F0
sg253
F0
sg254
F0
sg32
I01
sg89
I00
sg33
I00
sg256
F0
sg257
F0
sg37
I00
sg258
S''
sg39
F0
sg40
S'0,0,0'
p956
sg42
F0
sg43
S'0,0,0'
p957
sg45
I00
sg46
I00
sg262
I0
sg263
I00
sg49
I00
sg50
S''
sg51
I255
sg52
S''
sg53
F995
sg54
F558
sg55
S''
sg56
F0
sg264
I0
sg58
I00
sg59
F0
sg60
F0
sg61
S''
sg62
S'orangekid'
p958
sg266
F0
sg65
I16
sg66
S''
sg267
I00
sg68
F0
sg69
S'\nfunction T:onClick ()\n\tgame.levelMoveMainHeroToScreenNameAtPosition ("helpHUD", 100, 100)\nend\n'
p959
sg71
I0
sg72
S''
sg73
(lp960
sg75
F0
sg76
I00
sg77
F0
sg78
I1
sS'z'
F0
sg79
S'helpHUD'
p961
sg81
I01
sg82
I00
sg840
I0
sg271
S''
sg85
I00
sg86
S'/paddleHit2.caf'
p962
sg88
S''
sg83
I0
sg90
F0
sg255
I0
sg91
F120
sg849
I00
sa(dp963
g13
F0
sg14
F0
sg15
S'/buttonClick1.caf'
p964
sg90
F0
sg17
S'Joystick Control'
p965
sg19
I255
sg20
S''
sg21
S'255,255,255'
p966
sg23
F0
sg24
F0
sg25
S''
sg26
F28
sg27
I01
sg252
F0
sg253
F0
sg254
F0
sg32
I01
sg33
I00
sg849
I00
sg256
F0
sg257
F0
sg37
I00
sg258
S''
sg39
F0
sg40
S'0,0,0'
p967
sg42
F0
sg43
S'0,0,0'
p968
sg45
I00
sg46
I00
sg262
I0
sg263
I00
sg49
I00
sg50
S''
sg51
I255
sg52
S''
sg53
F899
sg54
F601
sg55
S''
sg56
F0
sg264
I0
sg58
I00
sg59
F0
sg60
F0
sg61
S''
sg62
S'orangekid'
p969
sg266
F0
sg65
I16
sg66
S''
sg267
I00
sg68
F0
sg69
S'\nfunction T:onClick ()\n\tgame.levelMoveMainHeroToScreenNameAtPosition ("helpControlJoystick1", 100, 100)\nend\n'
p970
sg71
I0
sg72
S''
sg73
(lp971
sg75
F0
sg76
I00
sg77
F0
sg78
I1
sg79
S'helpControlJoystick'
p972
sg81
I01
sg82
I00
sg83
I0
sg271
S''
sg85
I00
sg86
S'/paddleHit2.caf'
p973
sg88
S''
sg840
I0
sg255
I0
sS'z'
F0
sg91
F120
sg89
I00
sa(dp974
g13
F0
sg14
F0
sg15
S'/buttonClick1.caf'
p975
sg17
S'Turbo Slide Control'
p976
sg19
I255
sg20
S''
sg21
S'255,255,255'
p977
sg23
F0
sg24
F0
sg25
S''
sg26
F28
sg27
I01
sg840
I0
sg252
F0
sg253
F0
sg254
F0
sg32
I01
sg33
I00
sg255
I0
sg256
F0
sg257
F0
sg37
I00
sg258
S''
sg39
F0
sg40
S'0,0,0'
p978
sg42
F0
sg43
S'0,0,0'
p979
sg45
I00
sg46
I00
sg262
I0
sg263
I00
sg49
I00
sg50
S''
sg51
I255
sg52
S''
sg53
F1090
sg54
F641
sg55
S''
sg56
F0
sg264
I0
sg58
I00
sg59
F0
sg60
F0
sg61
S''
sg62
S'orangekid'
p980
sg266
F0
sg65
I16
sg66
S''
sg90
F0
sg68
F0
sg69
S'\nfunction T:onClick ()\n\tgame.levelMoveMainHeroToScreenNameAtPosition ("helpControl2", 100, 100)\nend\n'
p981
sg71
I0
sg72
S''
sg73
(lp982
sg75
F0
sg76
I00
sg77
F0
sg78
I1
sg79
S'helpControl2'
p983
sg81
I01
sg82
I00
sg83
I0
sg271
S''
sg85
I00
sg86
S'/paddleHit2.caf'
p984
sg88
S''
sg89
I00
sg267
I00
sS'z'
F0
sg91
F120
sg849
I00
sa(dp985
g13
F0
sg14
F0
sg15
S'/buttonClick1.caf'
p986
sg17
S'Back'
p987
sg19
I255
sg20
S''
sg37
I00
sg23
F0
sg24
F0
sg25
S''
sg26
F28
sg27
I01
sg513
I0
sg492
F0
sg493
F0
sg494
F0
sg32
I01
sg33
I00
sg514
I0
sg496
F0
sg497
F0
sg21
S'255,255,255'
p988
sg499
S''
sg39
F0
sg40
S'0,0,0'
p989
sg42
F0
sg43
S'0,0,0'
p990
sg45
I00
sg46
I00
sg502
I0
sg503
I00
sg49
I00
sg50
S''
sg51
I255
sg52
S''
sg53
F862
sg54
F713
sg55
S''
sg56
F0
sg504
I0
sg58
I00
sg59
F0
sg60
F0
sg61
S''
sg62
S'orangekid'
p991
sg506
F0
sg65
I16
sg66
S''
sg90
F0
sg68
F0
sg69
S'\nfunction T:onClick ()\n\tgame.levelMoveMainHeroToScreenNameAtPosition ("mainMenu", 150, 130)\nend\n'
p992
sg71
I0
sg72
S''
sg73
(lp993
sg75
F0
sg76
I00
sg77
F0
sg78
I1
sg79
S'newEscapeBack'
p994
sg81
I01
sg82
I00
sg83
I0
sg511
S''
sg85
I00
sg86
S'/paddleHit2.caf'
p995
sg88
S''
sg89
I00
sg507
I00
sS'z'
F0
sg91
F100
sg495
I00
sa(dp996
g13
F0
sg14
F0
sg15
S''
sg17
S''
sg19
I255
sg20
S'pong'
p997
sg37
I00
sg23
F0
sg24
F0
sg25
S'{aiLevel=5;maxSpeedY=1500;speedFactor=15;}'
p998
sg26
F100
sg27
I01
sg545
F0
sg546
F0
sg547
F0
sg32
I00
sg33
I00
sg564
I00
sg548
F0
sg549
F0
sg21
S'255,255,255'
p999
sg550
S''
sg39
F0
sg40
S'0,0,0'
p1000
sg42
F0
sg43
S'0,0,0'
p1001
sg45
I00
sg46
I00
sg553
I0
sg562
I00
sg554
I00
sg49
I00
sg50
S''
sg51
I255
sg52
S''
sg53
I817
sg54
I569
sg55
S''
sg56
F0
sg555
I0
sg58
I00
sg59
F0
sg60
F0
sg61
S''
sg62
S'orangekid'
p1002
sg557
F0
sg65
I16
sg66
S''
sg90
F0
sg68
F0
sg69
S''
sg71
I0
sg72
S''
sg73
(lp1003
sg75
F0
sg76
I00
sg77
F0
sg78
I1
sg79
S''
sg81
I00
sg82
I00
sg561
I0
sg559
S''
sg85
I00
sg86
S'/paddleHit2.caf'
p1004
sg88
S''
sg83
I0
sg563
I0
sS'z'
F0
sg91
F10
sg89
I00
sa(dp1005
g13
F0
sg14
F0
sg15
S''
sg17
S''
sg19
I255
sg20
S'pong'
p1006
sg37
I00
sg23
F0
sg24
F0
sg25
S'{aiLevel=5;maxSpeedY=1500;speedFactor=15;}'
p1007
sg26
F100
sg27
I01
sg569
F0
sg570
F0
sg571
F0
sg32
I00
sg33
I00
sg588
I00
sg572
F0
sg573
F0
sg21
S'255,255,255'
p1008
sg574
S''
sg39
F0
sg40
S'0,0,0'
p1009
sg42
F0
sg43
S'0,0,0'
p1010
sg45
I00
sg46
I00
sg577
I0
sg586
I00
sg578
I00
sg49
I00
sg50
S''
sg51
I255
sg52
S''
sg53
I1272
sg54
I536
sg55
S''
sg56
F0
sg579
I0
sg58
I00
sg59
F0
sg60
F0
sg61
S''
sg62
S'orangekid'
p1011
sg581
F0
sg65
I16
sg66
S''
sg90
F0
sg68
F0
sg69
S''
sg71
I0
sg72
S''
sg73
(lp1012
sg75
F0
sg76
I00
sg77
F0
sg78
I1
sg79
S''
sg81
I00
sg82
I00
sg585
I0
sg583
S''
sg85
I00
sg86
S'/paddleHit2.caf'
p1013
sg88
S''
sg83
I0
sg587
I0
sS'z'
F0
sg91
F10
sg89
I00
sa(dp1014
g13
F0
sg14
F0
sg15
S'/buttonClick1.caf'
p1015
sg17
S'Back'
p1016
sg19
I255
sg20
S''
sg21
S'255,255,255'
p1017
sg23
F0
sg24
F0
sg25
S''
sg26
F28
sg27
I01
sg492
F0
sg493
F0
sg494
F0
sg32
I01
sg89
I00
sg33
I00
sg496
F0
sg497
F0
sg37
I00
sg499
S''
sg39
F0
sg40
S'0,0,0'
p1018
sg42
F0
sg43
S'0,0,0'
p1019
sg45
I00
sg46
I00
sg502
I0
sg503
I00
sg49
I00
sg50
S''
sg51
I255
sg52
S''
sg53
I1356
sg54
I714
sg55
S''
sg56
F0
sg504
I0
sg58
I00
sg59
F0
sg60
F0
sg61
S''
sg62
S'orangekid'
p1020
sg506
F0
sg65
I16
sg66
S''
sg507
I00
sg68
F0
sg69
S'\nfunction T:onClick ()\n\tgame.levelMoveMainHeroToScreenNameAtPosition ("help", 50, 230)\nend\n'
p1021
sg71
I0
sg72
S''
sg73
(lp1022
sg75
F0
sg76
I00
sg77
F0
sg78
I1
sS'z'
F0
sg79
S'newEscapeBack'
p1023
sg81
I01
sg82
I00
sg513
I0
sg511
S''
sg85
I00
sg86
S'/paddleHit2.caf'
p1024
sg88
S''
sg83
I0
sg90
F0
sg514
I0
sg91
F100
sg495
I00
sa(dp1025
g13
F0
sg14
F0
sg15
S'/buttonClick1.caf'
p1026
sg17
S'About'
p1027
sg19
I255
sg20
S''
sg21
S'255,255,255'
p1028
sg23
F0
sg24
F0
sg25
S''
sg26
F28
sg27
I01
sg252
F0
sg253
F0
sg254
F0
sg32
I01
sg89
I00
sg33
I00
sg256
F0
sg257
F0
sg37
I00
sg258
S''
sg39
F0
sg40
S'0,0,0'
p1029
sg42
F0
sg43
S'0,0,0'
p1030
sg45
I00
sg46
I00
sg262
I0
sg263
I00
sg49
I00
sg50
S''
sg51
I255
sg52
S''
sg53
F318
sg54
F167
sg55
S''
sg56
F0
sg264
I0
sg58
I00
sg59
F0
sg60
F0
sg61
S''
sg62
S'orangekid'
p1031
sg266
F0
sg65
I16
sg66
S''
sg267
I00
sg68
F0
sg69
S'\nfunction T:onClick ()\n\tgame.levelMoveMainHeroToScreenNameAtPosition ("about", 40, 300)\nend\n'
p1032
sg71
I0
sg72
S''
sg73
(lp1033
sg75
F0
sg76
I00
sg77
F0
sg78
I1
sS'z'
F0
sg79
S'about'
p1034
sg81
I01
sg82
I00
sg840
I0
sg271
S''
sg85
I00
sg86
S'/paddleHit2.caf'
p1035
sg88
S''
sg83
I0
sg90
F0
sg255
I0
sg91
F90
sg849
I00
sa(dp1036
g13
F0
sg14
F0
sg15
S'/buttonClick1.caf'
p1037
sg90
F0
sg17
S'Back'
p1038
sg19
I255
sg20
S''
sg21
S'255,255,255'
p1039
sg23
F0
sg24
F0
sg25
S''
sg26
F28
sg27
I01
sg492
F0
sg493
F0
sg494
F0
sg32
I01
sg33
I00
sg495
I00
sg496
F0
sg497
F0
sg37
I00
sg499
S''
sg39
F0
sg40
S'0,0,0'
p1040
sg42
F0
sg43
S'0,0,0'
p1041
sg45
I00
sg46
I00
sg502
I0
sg503
I00
sg49
I00
sg50
S''
sg51
I255
sg52
S''
sg53
I1347
sg54
I1065
sg55
S''
sg56
F0
sg504
I0
sg58
I00
sg59
F0
sg60
F0
sg61
S''
sg62
S'orangekid'
p1042
sg506
F0
sg65
I16
sg66
S''
sg507
I00
sg68
F0
sg69
S'\nfunction T:onClick ()\n\tgame.levelMoveMainHeroToScreenNameAtPosition ("help", 50, 230)\nend\n'
p1043
sg71
I0
sg72
S''
sg73
(lp1044
sg75
F0
sg76
I00
sg77
F0
sg78
I1
sg79
S'newEscapeBack'
p1045
sg81
I01
sg82
I00
sg83
I0
sg511
S''
sg85
I00
sg86
S'/paddleHit2.caf'
p1046
sg88
S''
sg513
I0
sg514
I0
sS'z'
F0
sg91
F100
sg89
I00
sa(dp1047
g13
F0
sg14
F0
sg15
S'/buttonClick1.caf'
p1048
sg17
S'Back'
p1049
sg19
I255
sg20
S''
sg21
S'255,255,255'
p1050
sg23
F0
sg24
F0
sg25
S''
sg26
F28
sg27
I01
sg513
I0
sg492
F0
sg493
F0
sg494
F0
sg32
I01
sg33
I00
sg514
I0
sg496
F0
sg497
F0
sg37
I00
sg499
S''
sg39
F0
sg40
S'0,0,0'
p1051
sg42
F0
sg43
S'0,0,0'
p1052
sg45
I00
sg46
I00
sg502
I0
sg503
I00
sg49
I00
sg50
S''
sg51
I255
sg52
S''
sg53
F1349
sg54
F1407
sg55
S''
sg56
F0
sg504
I0
sg58
I00
sg59
F0
sg60
F0
sg61
S''
sg62
S'orangekid'
p1053
sg506
F0
sg65
I16
sg66
S''
sg90
F0
sg68
F0
sg69
S'\nfunction T:onClick ()\n\tgame.levelMoveMainHeroToScreenNameAtPosition ("help", 50, 230)\nend\n'
p1054
sg71
I0
sg72
S''
sg73
(lp1055
sg75
F0
sg76
I00
sg77
F0
sg78
I1
sg79
S'newEscapeBack'
p1056
sg81
I01
sg82
I00
sg83
I0
sg511
S''
sg85
I00
sg86
S'/paddleHit2.caf'
p1057
sg88
S''
sg89
I00
sg507
I00
sS'z'
F0
sg91
F100
sg495
I00
sa(dp1058
g874
F0
sg875
F0
sg876
S'/buttonClick1.caf'
p1059
sg877
S''
sg878
S''
sg879
S'0,0,0'
p1060
sg881
F0
sg882
S''
sg883
F0
sg884
S''
sg885
F128
sg886
I01
sg887
F1
sg888
F0.5
sg889
F0.5
sg890
I01
sg891
I00
sg892
I00
sg893
F0.5
sg894
F0.5
sg895
I00
sg896
S'be2Trailer.png'
p1061
sg898
F0
sg899
S'0,0,0'
p1062
sg901
F0
sg902
S'0,0,0'
p1063
sg904
S''
sg905
I00
sg906
I255
sg907
I00
sg908
S''
sg909
I255
sg910
I255
sg911
F160
sg912
F835
sg913
S''
sg914
F0
sg915
I120
sg916
I00
sg917
F0
sg918
F0
sg919
S''
sg920
S'orangekid'
p1064
sg922
F0
sg923
I16
sg924
S''
sg925
I00
sg926
F0
sg927
S'\nfunction T:onClick ()\n\tgame.playBe2Trailer ()\n--\tgame.openBe2EscapeURL ()\nend\n'
p1065
sg929
I0
sg930
S''
sg931
(lp1066
sg933
F0
sg934
I00
sg935
F0
sg936
I1
sS'z'
F0
sg937
S'logo'
p1067
sg939
I01
sg940
I00
sg941
I150
sg942
I00
sg943
I00
sg944
I00
sg945
S'/paddleHit2.caf'
p1068
sg946
S''
sg947
I0
sg948
F0
sg949
I120
sg950
F128
sg951
I00
sa(dp1069
g13
F0
sg14
F0
sg15
S'/buttonClick1.caf'
p1070
sg17
S'Some music by Kevin MacLeod -< '
p1071
sg19
I255
sg20
S''
sg37
I00
sg23
F0
sg24
F0
sg25
S''
sg26
F28
sg27
I01
sg637
I0
sg617
F0
sg618
F0
sg619
F0
sg32
I01
sg33
I00
sg638
I0
sg621
F0
sg622
F0
sg21
S'255,255,255'
p1072
sg624
S''
sg39
F0
sg40
S'0,0,0'
p1073
sg42
F0
sg43
S'0,0,0'
p1074
sg45
I00
sg46
I00
sg627
I0
sg628
I00
sg49
I00
sg50
S''
sg51
I255
sg52
S''
sg53
F316
sg54
F979
sg55
S''
sg56
F0
sg629
I0
sg58
I00
sg59
F0
sg60
F0
sg61
S''
sg62
S'orangekid'
p1075
sg631
F0
sg65
I16
sg66
S''
sg90
F0
sg68
F0
sg69
S'\nfunction T:onClick ()\n\tgame.openIncompetechURL ()\nend\n'
p1076
sg71
I0
sg72
S''
sg73
(lp1077
sg75
F0
sg76
I00
sg77
F0
sg78
I1
sg79
S'incompetech'
p1078
sg81
I01
sg82
I00
sg83
I0
sg635
S''
sg85
I00
sg86
S'/paddleHit2.caf'
p1079
sg88
S''
sg89
I00
sg67
I00
sS'z'
F0
sg91
F210
sg620
I00
sa(dp1080
g13
F0
sg14
F0
sg15
S'/buttonClick1.caf'
p1081
sg17
S'Powered by Cocos2D -<'
p1082
sg19
I255
sg20
S''
sg21
S'255,255,255'
p1083
sg23
F0
sg24
F0
sg25
S''
sg26
F28
sg27
I01
sg617
F0
sg618
F0.5
sg619
F0.5
sg32
I01
sg89
I00
sg33
I00
sg621
F0.5
sg622
F0.5
sg37
I00
sg624
S''
sg39
F0
sg40
S'0,0,0'
p1084
sg42
F0
sg43
S'0,0,0'
p1085
sg45
I00
sg46
I00
sg627
I255
sg628
I00
sg49
I00
sg50
S''
sg51
I255
sg52
S''
sg53
F316
sg54
F942
sg55
S''
sg56
F0
sg629
I28
sg58
I00
sg59
F0
sg60
F0
sg61
S''
sg62
S'orangekid'
p1086
sg631
F0
sg65
I16
sg66
S''
sg67
I00
sg68
F0
sg69
S'\nfunction T:onClick ()\n\tgame.openCocos2DURL ()\nend\n'
p1087
sg71
I0
sg72
S''
sg73
(lp1088
sg75
F0
sg76
I00
sg77
F0
sg78
I1
sS'z'
F0
sg79
S'cocos2d'
p1089
sg81
I01
sg82
I00
sg637
I0
sg635
S''
sg85
I00
sg86
S'/paddleHit2.caf'
p1090
sg88
S''
sg83
I0
sg90
F0
sg638
I93
sg91
F210
sg620
I00
sa(dp1091
g13
F0
sg14
F0
sg15
S'/buttonClick1.caf'
p1092
sg90
F0
sg17
S'Rate Me'
p1093
sg19
I255
sg20
S''
sg37
I00
sg23
F0
sg24
F0
sg25
S''
sg26
F28
sg27
I01
sg252
F0
sg253
F0.01
sg254
F0.5
sg32
I01
sg33
I00
sg861
I00
sg256
F0
sg257
F0.5
sg21
S'255,255,255'
p1094
sg258
S'/rateStar.png'
p1095
sg39
F0
sg40
S'0,128,255'
p1096
sg42
F0
sg43
S'0,0,0'
p1097
sg45
I00
sg46
I00
sg262
I255
sg263
I00
sg49
I00
sg50
S''
sg51
I255
sg52
S''
sg53
F318
sg54
F246
sg55
S''
sg56
F0
sg264
I16
sg58
I00
sg59
F0
sg60
F0.90000000000000002
sg61
S''
sg62
S'orangekid'
p1098
sg266
F0
sg65
I16
sg66
S''
sg267
I00
sg68
F0
sg69
S'\nfunction T:onClick ()\n\tgame.rateNow ()\nend\n'
p1099
sg71
I0
sg72
S''
sg73
(lp1100
sg75
F0
sg76
I00
sg77
F0
sg78
I1
sg79
S'rateNow'
p1101
sg81
I01
sg82
I00
sg840
I0
sg271
S''
sg85
I00
sg86
S'/paddleHit2.caf'
p1102
sg88
S''
sg83
I0
sg255
I16
sS'z'
F0
sg91
F90
sg89
I00
sa(dp1103
g13
F0
sg14
F0
sg15
S'/buttonClick1.caf'
p1104
sg17
S'Back'
p1105
sg19
I255
sg20
S''
sg21
S'255,255,255'
p1106
sg23
F0
sg24
F0
sg25
S''
sg26
F28
sg27
I01
sg492
F0
sg493
F0
sg494
F0
sg32
I01
sg89
I00
sg33
I00
sg496
F0
sg497
F0
sg37
I00
sg499
S''
sg39
F0
sg40
S'0,0,0'
p1107
sg42
F0
sg43
S'0,0,0'
p1108
sg45
I00
sg46
I00
sg502
I0
sg503
I00
sg49
I00
sg50
S''
sg51
I255
sg52
S''
sg53
F1318
sg54
F301
sg55
S''
sg56
F0
sg504
I0
sg58
I00
sg59
F0
sg60
F0
sg61
S''
sg62
S'orangekid'
p1109
sg506
F0
sg65
I16
sg66
S''
sg507
I00
sg68
F0
sg69
S'\nfunction T:onClick ()\n\tgame.levelMoveMainHeroToScreenNameAtPosition ("about", 40, 300)\nend\n'
p1110
sg71
I0
sg72
S''
sg73
(lp1111
sg75
F0
sg76
I00
sg77
F0
sg78
I1
sS'z'
F0
sg79
S'newEscapeBack'
p1112
sg81
I01
sg82
I00
sg513
I0
sg511
S''
sg85
I00
sg86
S'/paddleHit2.caf'
p1113
sg88
S''
sg83
I0
sg90
F0
sg514
I0
sg91
F100
sg495
I00
sa(dp1114
g13
F0
sg14
F0
sg15
S'/buttonClick1.caf'
p1115
sg90
F0
sg17
S'Unlimited Lifes'
p1116
sg19
I255
sg20
S''
sg21
S'255,255,255'
p1117
sg23
F0
sg24
F0
sg25
S''
sg26
F28
sg27
I01
sg252
F0
sg253
F0
sg254
F0
sg32
I01
sg33
I00
sg849
I00
sg256
F0
sg257
F0
sg37
I00
sg258
S''
sg39
F0
sg40
S'0,0,0'
p1118
sg42
F0
sg43
S'0,0,0'
p1119
sg45
I00
sg46
I00
sg262
I0
sg263
I00
sg49
I00
sg50
S''
sg51
I255
sg52
S''
sg53
F1431
sg54
F137
sg55
S''
sg56
F0
sg264
I0
sg58
I00
sg59
F0
sg60
F0
sg61
S''
sg62
S'orangekid'
p1120
sg266
F0
sg65
I16
sg66
S''
sg267
I00
sg68
F0
sg69
S'\nfunction T:onClick ()\n\tlocal t = game.getGlobal (42)\n\tif t > 0 then t = 0 else t = 1 end\n\tgame.setGlobal (42, t)\n\tscreen:setupLabels ()\nend\n'
p1121
sg71
I0
sg72
S''
sg73
(lp1122
sg75
F0
sg76
I00
sg77
F0
sg78
I1
sg79
S'pongodUnlimitedLifes'
p1123
sg81
I01
sg82
I00
sg83
I0
sg271
S''
sg85
I00
sg86
S'/paddleHit2.caf'
p1124
sg88
S''
sg840
I0
sg255
I0
sS'z'
F0
sg91
F200
sg89
I00
sa(dp1125
g13
F0
sg14
F0
sg15
S'/buttonClick1.caf'
p1126
sg17
S'Show End Scene'
p1127
sg19
I255
sg20
S''
sg21
S'255,255,255'
p1128
sg23
F0
sg24
F0
sg25
S''
sg26
F28
sg27
I01
sg840
I0
sg252
F0
sg253
F0
sg254
F0
sg32
I01
sg33
I00
sg255
I0
sg256
F0
sg257
F0
sg37
I00
sg258
S''
sg39
F0
sg40
S'0,0,0'
p1129
sg42
F0
sg43
S'0,0,0'
p1130
sg45
I00
sg46
I00
sg262
I0
sg263
I00
sg49
I00
sg50
S''
sg51
I255
sg52
S''
sg53
I1526
sg54
I295
sg55
S''
sg56
F0
sg264
I0
sg58
I00
sg59
F0
sg60
F0
sg61
S''
sg62
S'orangekid'
p1131
sg266
F0
sg65
I16
sg66
S''
sg90
F0
sg68
F0
sg69
S'\nfunction T:onClick ()\n\tgame.setGlobal (6, 1)\nend\n'
p1132
sg71
I0
sg72
S''
sg73
(lp1133
sg75
F0
sg76
I00
sg77
F0
sg78
I1
sg79
S'pongodShowEndScene'
p1134
sg81
I01
sg82
I00
sg83
I0
sg271
S''
sg85
I00
sg86
S'/paddleHit2.caf'
p1135
sg88
S''
sg89
I00
sg267
I00
sS'z'
F0
sg91
F200
sg849
I00
sa(dp1136
g13
F0
sg14
F0
sg15
S'/buttonClick1.caf'
p1137
sg17
S'All Levels'
p1138
sg19
I255
sg20
S''
sg21
S'255,255,255'
p1139
sg23
F0
sg24
F0
sg25
S''
sg26
F28
sg27
I01
sg840
I0
sg252
F0
sg253
F0
sg254
F0
sg32
I01
sg33
I00
sg255
I0
sg256
F0
sg257
F0
sg37
I00
sg258
S''
sg39
F0
sg40
S'0,0,0'
p1140
sg42
F0
sg43
S'0,0,0'
p1141
sg45
I00
sg46
I00
sg262
I0
sg263
I00
sg49
I00
sg50
S''
sg51
I255
sg52
S''
sg53
I1431
sg54
I170
sg55
S''
sg56
F0
sg264
I0
sg58
I00
sg59
F0
sg60
F0
sg61
S''
sg62
S'orangekid'
p1142
sg266
F0
sg65
I16
sg66
S''
sg90
F0
sg68
F0
sg69
S'\nfunction T:onClick ()\n\tlocal t = game.getGlobal (12)\n\tif t > 0 then t = 0 else t = 1 end\n\tgame.setGlobal (12, t)\n\tscreen:setupLabels ()\nend\n'
p1143
sg71
I0
sg72
S''
sg73
(lp1144
sg75
F0
sg76
I00
sg77
F0
sg78
I1
sg79
S'pongodAllLevels'
p1145
sg81
I01
sg82
I00
sg83
I0
sg271
S''
sg85
I00
sg86
S'/paddleHit2.caf'
p1146
sg88
S''
sg89
I00
sg267
I00
sS'z'
F0
sg91
F200
sg849
I00
sa(dp1147
g13
F0
sg14
F0
sg15
S'/buttonClick1.caf'
p1148
sg17
S'pongod'
p1149
sg19
I255
sg20
S''
sg37
I00
sg23
F0
sg24
F0
sg25
S''
sg26
F28
sg27
I01
sg637
I0
sg617
F0
sg618
F0.5
sg619
F0.5
sg32
I01
sg33
I00
sg638
I128
sg621
F0.5
sg622
F0.5
sg21
S'255,255,255'
p1150
sg624
S''
sg39
F0
sg40
S'0,0,0'
p1151
sg42
F0
sg43
S'0,0,0'
p1152
sg45
I01
sg46
I00
sg627
I255
sg628
I00
sg49
I00
sg50
S''
sg51
I0
sg52
S''
sg53
F132
sg54
F746
sg55
S''
sg56
F0
sg629
I47
sg58
I00
sg59
F0
sg60
F0
sg61
S''
sg62
S'orangekid'
p1153
sg631
F0
sg65
I16
sg66
S''
sg90
F0
sg68
F0
sg69
S'\nfunction T:onClick ()\n\tlocal b = game.isFreeVersion () and not game.areAllLevelsPurchased ()\n\n\tif not b then\t\n\t\tgame.levelMoveMainHeroToScreenNameAtPosition ("pongod", 30, 130)\n\tend\nend\n'
p1154
sg71
I0
sg72
S''
sg73
(lp1155
sg75
F0
sg76
I00
sg77
F0
sg78
I1
sg79
S'pongod'
p1156
sg81
I01
sg82
I00
sg83
I0
sg635
S''
sg85
I00
sg86
S'/paddleHit2.caf'
p1157
sg88
S''
sg89
I00
sg67
I00
sS'z'
F0
sg91
F54
sg620
I00
sa(dp1158
g13
F0
sg14
F0
sg15
S'/buttonClick1.caf'
p1159
sg17
S'Full Quest Mode'
p1160
sg19
I255
sg20
S''
sg21
S'255,255,255'
p1161
sg23
F0
sg24
F0
sg25
S''
sg26
F28
sg27
I01
sg840
I0
sg252
F0
sg253
F0
sg254
F0
sg32
I01
sg33
I00
sg255
I0
sg256
F0
sg257
F0
sg37
I00
sg258
S''
sg39
F0
sg40
S'0,0,0'
p1162
sg42
F0
sg43
S'0,0,0'
p1163
sg45
I00
sg46
I00
sg262
I0
sg263
I00
sg49
I00
sg50
S''
sg51
I255
sg52
S''
sg53
F1431
sg54
F203
sg55
S''
sg56
F0
sg264
I0
sg58
I00
sg59
F0
sg60
F0
sg61
S''
sg62
S'orangekid'
p1164
sg266
F0
sg65
I16
sg66
S''
sg90
F0
sg68
F0
sg69
S'\nfunction T:onClick ()\n\tlocal t = game.getGlobal (9)\n\tif t > 0 then t = 0 else t = 1 end\n\tgame.setGlobal (9, t)\n\tscreen:setupLabels ()\nend\n'
p1165
sg71
I0
sg72
S''
sg73
(lp1166
sg75
F0
sg76
I00
sg77
F0
sg78
I1
sg79
S'pongodFullQuestMode'
p1167
sg81
I01
sg82
I00
sg83
I0
sg271
S''
sg85
I00
sg86
S'/paddleHit2.caf'
p1168
sg88
S''
sg89
I00
sg267
I00
sS'z'
F0
sg91
F200
sg849
I00
sa(dp1169
g13
F0
sg14
F0
sg15
S'/buttonClick1.caf'
p1170
sg17
S'Full Quest Completed'
p1171
sg19
I255
sg20
S''
sg37
I00
sg23
F0
sg24
F0
sg25
S''
sg26
F28
sg27
I01
sg252
F0
sg253
F0
sg254
F0
sg32
I01
sg89
I00
sg33
I00
sg256
F0
sg257
F0
sg21
S'255,255,255'
p1172
sg258
S''
sg39
F0
sg40
S'0,0,0'
p1173
sg42
F0
sg43
S'0,0,0'
p1174
sg45
I00
sg46
I00
sg262
I0
sg263
I00
sg49
I00
sg50
S''
sg51
I255
sg52
S''
sg53
F1431
sg54
F236
sg55
S''
sg56
F0
sg264
I0
sg58
I00
sg59
F0
sg60
F0
sg61
S''
sg62
S'orangekid'
p1175
sg266
F0
sg65
I16
sg66
S''
sg267
I00
sg68
F0
sg69
S'\nfunction T:onClick ()\n\tlocal t = game.getGlobal (10)\n\tif t > 0 then t = 0 else t = 1 end\n\tgame.setGlobal (10, t)\n\tscreen:setupLabels ()\nend\n'
p1176
sg71
I0
sg72
S''
sg73
(lp1177
sg75
F0
sg76
I00
sg77
F0
sg78
I1
sS'z'
F0
sg79
S'pongodFullQuestCompleted'
p1178
sg81
I01
sg82
I00
sg840
I0
sg271
S''
sg85
I00
sg86
S'/paddleHit2.caf'
p1179
sg88
S''
sg83
I0
sg90
F0
sg255
I0
sg91
F200
sg849
I00
sa(dp1180
g874
F0
sg875
F0
sg876
S''
sg948
F0
sg877
S''
sg878
S''
sg879
S'0,0,0'
p1181
sg881
F0
sg882
S''
sg883
F0
sg884
S''
sg885
F50
sg886
I01
sg887
F1
sg888
F0.5
sg889
F0.5
sg890
I00
sg892
I00
sg951
I00
sg893
F0.5
sg894
F0.5
sg895
I00
sg896
S'/logoSquare.png'
p1182
sg898
F0
sg899
S'0,0,0'
p1183
sg901
F0
sg902
S'0,0,0'
p1184
sg904
S''
sg905
I00
sg906
I255
sg907
I00
sg908
S''
sg909
I255
sg910
I255
sg911
I214
sg912
I15
sg913
S''
sg914
F0
sg915
I44
sg916
I00
sg917
F0
sg918
F0
sg919
S''
sg920
S'orangekid'
p1185
sg922
F0
sg923
I16
sg924
S''
sg925
I00
sg926
F0
sg927
S'\nfunction T:onClick ()\n\tgame.playBe2Trailer ()\n--\tgame.openBe2EscapeURL ()\nend\n'
p1186
sg929
I0
sg930
S''
sg931
(lp1187
sg933
F0
sg934
I00
sg935
F0
sg936
I1
sg937
S'logo'
p1188
sg939
I00
sg940
I00
sg947
I0
sg942
I00
sg943
I00
sg944
I00
sg945
S'/paddleHit2.caf'
p1189
sg946
S''
sg941
I150
sg949
I44
sS'z'
F0
sg950
F50
sg891
I00
sa(dp1190
g13
F0
sg14
F0
sg15
S'/buttonClick1.caf'
p1191
sg17
S'Difficulty Level'
p1192
sg19
I255
sg20
S''
sg21
S'255,255,255'
p1193
sg23
F0
sg24
F0
sg25
S''
sg26
F28
sg27
I01
sg840
I0
sg252
F0
sg253
F0
sg254
F0
sg32
I01
sg33
I00
sg255
I0
sg256
F0
sg257
F0
sg37
I00
sg258
S''
sg39
F0
sg40
S'0,0,0'
p1194
sg42
F0
sg43
S'0,0,0'
p1195
sg45
I00
sg46
I01
sg262
I0
sg263
I00
sg49
I00
sg50
S''
sg51
I255
sg52
S''
sg53
F732
sg54
F90
sg55
S''
sg56
F0
sg264
I0
sg58
I00
sg59
F0
sg60
F0
sg61
S''
sg62
S'orangekid'
p1196
sg266
F0
sg65
I16
sg66
S''
sg90
F0
sg68
F0
sg69
S'function T:onEnter ()\n\tself:setupLabels ()\nend\n\nfunction T:onClick ()\n\tlocal dl = game.difficultyLevel ()\n\n\tif dl == kDifficultyHigh then\n\t\tdl = kDifficultyLow\n\t\tmainHero:showMessageEmoticonDurationSound ("You want the easy way!", kEmoticonDevil, 5, "/elements/hey.caf")\n\telse\n\t\tdl = kDifficultyHigh\n\t\tmainHero:showMessageEmoticonDurationSound ("You have square squares!", kEmoticonHappy, 5, "/elements/yeah.caf")\n\tend\n\n\tgame.setDifficultyLevel (dl)\n\tself:setupLabels ()\nend\n\nfunction T:setupLabels ()\n\tlocal dl = game.difficultyLevel ()\n\tlocal l\n\n\tif dl == kDifficultyHigh then\n\t\tl = "Danger Mode"\n\telse\n\t\tl = "Normal Mode"\n\tend\n\n\tself:setLabel (l)\nend\n'
p1197
sg71
I0
sg72
S''
sg73
(lp1198
sg75
F0
sg76
I00
sg77
F0
sg78
I1
sg79
S'difficultyLevel'
p1199
sg81
I01
sg82
I00
sg83
I0
sg271
S''
sg85
I00
sg86
S'/paddleHit2.caf'
p1200
sg88
S''
sg89
I00
sg267
I00
sS'z'
F0
sg91
F150
sg849
I00
sa(dp1201
g13
F0
sg14
F0
sg15
S'/buttonClick1.caf'
p1202
sg17
S'Jump Training'
p1203
sg19
I255
sg20
S''
sg21
S'255,255,255'
p1204
sg23
F0
sg24
F0
sg25
S''
sg26
F28
sg27
I01
sg677
I0
sg492
F0
sg493
F0
sg494
F0
sg32
I01
sg33
I00
sg514
I0
sg496
F0
sg497
F0
sg37
I00
sg499
S''
sg39
F0
sg40
S'255,255,0'
p1205
sg42
F0
sg43
S'0,0,0'
p1206
sg45
I00
sg46
I00
sg502
I0
sg503
I00
sg49
I00
sg50
S''
sg51
I255
sg52
S''
sg53
F-131
sg54
F-95
sg55
S''
sg56
F0
sg504
I0
sg58
I00
sg59
F0
sg60
F0.5
sg61
S''
sg62
S'orangekid'
p1207
sg506
F0
sg65
I16
sg66
S''
sg507
I00
sg68
F0
sg69
S'\nfunction T:onClick ()\n\tgame.levelMoveMainHeroToScreenNameAtPosition ("trainingFieldJump", 260, 80)\nend\n'
p1208
sg71
I0
sg72
S''
sg73
(lp1209
sg75
F0
sg76
I00
sg77
F0
sg78
I1
sg79
S'trainingFieldJumpButton'
p1210
sg81
I01
sg82
I00
sg83
I1
sg511
S''
sg85
I00
sg86
S'/paddleHit2.caf'
p1211
sg88
S''
sg89
I00
sg90
F0
sS'z'
F0
sg91
F100
sg669
I00
sa(dp1212
g13
F0
sg14
F0
sg15
S'/buttonClick1.caf'
p1213
sg17
S'Back'
p1214
sg19
I255
sg20
S''
sg21
S'255,255,255'
p1215
sg23
F0
sg24
F0
sg25
S''
sg26
F28
sg27
I01
sg677
I0
sg492
F0
sg493
F0
sg494
F0
sg32
I01
sg33
I00
sg514
I0
sg496
F0
sg497
F0
sg37
I00
sg499
S''
sg39
F0
sg40
S'0,0,0'
p1216
sg42
F0
sg43
S'0,0,0'
p1217
sg45
I00
sg46
I00
sg502
I0
sg503
I00
sg49
I00
sg50
S''
sg51
I255
sg52
S''
sg53
F7
sg54
F-94
sg55
S''
sg56
F0
sg504
I0
sg58
I00
sg59
F0
sg60
F0
sg61
S''
sg62
S'orangekid'
p1218
sg506
F0
sg65
I16
sg66
S''
sg507
I00
sg68
F0
sg69
S'\nfunction T:onClick ()\n\tgame.levelMoveMainHeroToScreenNameAtPosition ("mainMenu", 150, 130)\nend\n'
p1219
sg71
I0
sg72
S''
sg73
(lp1220
sg75
F0
sg76
I00
sg77
F0
sg78
I1
sg79
S'trainingFieldMoveBack'
p1221
sg81
I01
sg82
I00
sg83
I0
sg511
S''
sg85
I00
sg86
S'/paddleHit2.caf'
p1222
sg88
S''
sg89
I00
sg90
F0
sS'z'
F0
sg91
F83
sg669
I00
sa(dp1223
g13
F0
sg14
F0
sg15
S'/buttonClick1.caf'
p1224
sg17
S'Move Training'
p1225
sg19
I255
sg20
S''
sg21
S'255,255,255'
p1226
sg23
F0
sg24
F0
sg25
S''
sg26
F28
sg27
I01
sg492
F0
sg493
F0
sg494
F0
sg32
I01
sg89
I00
sg33
I00
sg496
F0
sg497
F0
sg37
I00
sg499
S''
sg39
F0
sg40
S'255,255,0'
p1227
sg42
F0
sg43
S'0,0,0'
p1228
sg45
I00
sg46
I00
sg502
I0
sg503
I00
sg49
I00
sg50
S''
sg51
I255
sg52
S''
sg53
F367
sg54
F-94
sg55
S''
sg56
F0
sg504
I0
sg58
I00
sg59
F0
sg60
F0.5
sg61
S''
sg62
S'orangekid'
p1229
sg506
F0
sg65
I16
sg66
S''
sg90
F0
sg68
F0
sg69
S'\nfunction T:onClick ()\n\tgame.levelMoveMainHeroToScreenNameAtPosition ("trainingFieldMove", 200, 30)\nend\n'
p1230
sg71
I0
sg72
S''
sg73
(lp1231
sg75
F0
sg76
I00
sg77
F0
sg78
I1
sS'z'
F0
sg79
S'trainingFieldMoveButton'
p1232
sg81
I01
sg82
I00
sg677
I0
sg511
S''
sg85
I00
sg86
S'/paddleHit2.caf'
p1233
sg88
S''
sg83
I1
sg507
I00
sg514
I0
sg91
F100
sg669
I00
sa(dp1234
S'maxX'
p1235
F0
sS'maxY'
p1236
F0
sS'audioClickSound'
p1237
S''
sS'labelText'
p1238
S''
sS'aiDefensiveKind'
p1239
S''
sS'kPaddleFlagScriptOnSideToggled'
p1240
I00
sS'energy'
p1241
F0
sS'textureName'
p1242
S''
sS'elasticity'
p1243
F0
sS'aiDefensiveConfig'
p1244
S''
sS'height'
p1245
F10
sS'kPaddleFlagEnabled'
p1246
I01
sS'scorePerHit'
p1247
I0
sS'audioMoveSoundTimeout'
p1248
F1
sS'topImagePositionX'
p1249
F0.5
sS'topImagePositionY'
p1250
F0.5
sS'kPaddleFlagScriptHandleTouches'
p1251
I00
sS'kPaddleFlagScriptOnExit'
p1252
I00
sS'topImageWidth'
p1253
I0
sS'topImageAnchorX'
p1254
F0.5
sS'topImageAnchorY'
p1255
F0.5
sS'colorColor1'
p1256
S'0,219,22'
p1257
sS'topImageName'
p1258
S''
sS'proximityAccelerationY'
p1259
F0
sS'colorColor2'
p1260
S'0,0,0'
p1261
sS'minX'
p1262
F0
sS'labelColor'
p1263
S'0,0,0'
p1264
sS'aiOffensiveConfig'
p1265
S''
sS'kPaddleFlagScriptOnEnter'
p1266
I00
sS'topImageOpacity'
p1267
I255
sS'kPaddleFlagBlockTouches'
p1268
I00
sS'audioInSound'
p1269
S''
sS'colorOpacity'
p1270
I255
sS'labelOpacity'
p1271
I255
sS'positionX'
p1272
I289
sS'positionY'
p1273
I-111
sS'audioMoveSound'
p1274
S''
sS'proximityAccelerationX'
p1275
F0
sS'topImageHeight'
p1276
I0
sS'kPaddleFlagScriptOnHeroInProxymityArea'
p1277
I00
sS'proximityWidth'
p1278
F0
sS'colorTintToDuration'
p1279
F0
sS'audioSoundLoop'
p1280
S''
sS'labelFont'
p1281
S'orangekid'
p1282
sS'topImageRotation'
p1283
F0
sS'labelFontSize'
p1284
I16
sS'audioOutSound'
p1285
S''
sS'speedY'
p1286
F0
sS'speedX'
p1287
F0
sS'scripts'
p1288
S''
sS'proximityMode'
p1289
I0
sS'aiOffensiveKind'
p1290
S''
sS'lights'
p1291
(lp1292
sS'proximityHeight'
p1293
F0
sS'kPaddleFlagSelected'
p1294
I00
sS'minY'
p1295
F0
sS'kind'
p1296
I1
sS'name'
p1297
S''
sS'kPaddleFlagIsButton'
p1298
I00
sS'kPaddleFlagScriptUpdate'
p1299
I00
sS'colorMode'
p1300
I0
sS'kPaddleFlagNoPositionLimit'
p1301
I00
sS'kPaddleFlagScriptApplyProximityInfluenceToHero'
p1302
I00
sS'kPaddleFlagCollisionDisabled'
p1303
I00
sS'audioHitSound'
p1304
S'/paddleHit1.caf'
p1305
sS'extensions'
p1306
S''
sS'kPaddleFlagOffensiveSide'
p1307
I00
sS'kPaddleFlagIsInvisible'
p1308
I00
sS'z'
F0
sS'width'
p1309
F60
sS'kPaddleFlagIsGlobal'
p1310
I00
sa(dp1311
g1235
F0
sg1236
F0
sg1237
S''
sg1238
S''
sg1239
S''
sg1256
S'0,219,22'
p1312
sg1241
F0
sg1242
S''
sg1243
F0
sg1244
S''
sg1245
F10
sg1246
I01
sg1248
F1
sg1249
F0.5
sg1250
F0.5
sg1251
I00
sg1307
I00
sg1252
I00
sg1254
F0.5
sg1255
F0.5
sg1240
I00
sg1258
S''
sg1259
F0
sg1260
S'0,0,0'
p1313
sg1262
F0
sg1263
S'0,0,0'
p1314
sg1265
S''
sg1266
I00
sg1267
I255
sg1268
I00
sg1269
S''
sg1270
I255
sg1271
I255
sg1272
I64
sg1273
I-172
sg1274
S''
sg1275
F0
sg1276
I0
sg1277
I00
sg1278
F0
sg1279
F0
sg1280
S''
sg1281
S'orangekid'
p1315
sg1283
F0
sg1284
I16
sg1285
S''
sg1308
I00
sg1287
F0
sg1288
S''
sg1289
I0
sg1290
S''
sg1291
(lp1316
sg1293
F0
sg1294
I00
sg1295
F0
sg1296
I1
sS'z'
F0
sg1297
S''
sg1298
I00
sg1299
I00
sg1247
I0
sg1301
I00
sg1302
I00
sg1303
I00
sg1304
S'/paddleHit1.caf'
p1317
sg1306
S''
sg1300
I0
sg1286
F0
sg1253
I0
sg1309
F100
sg1310
I00
sa(dp1318
g1235
F0
sg1236
F0
sg1237
S''
sg1238
S''
sg1239
S''
sg1256
S'0,219,22'
p1319
sg1241
F0
sg1242
S''
sg1243
F0
sg1244
S''
sg1245
F10
sg1246
I01
sg1248
F1
sg1249
F0.5
sg1250
F0.5
sg1251
I00
sg1307
I00
sg1252
I00
sg1254
F0.5
sg1255
F0.5
sg1240
I00
sg1258
S''
sg1259
F0
sg1260
S'0,0,0'
p1320
sg1262
F0
sg1263
S'0,0,0'
p1321
sg1265
S''
sg1266
I00
sg1267
I255
sg1268
I00
sg1269
S''
sg1270
I255
sg1271
I255
sg1272
I344
sg1273
I-191
sg1274
S''
sg1275
F0
sg1276
I0
sg1277
I00
sg1278
F0
sg1279
F0
sg1280
S''
sg1281
S'orangekid'
p1322
sg1283
F0
sg1284
I16
sg1285
S''
sg1308
I00
sg1287
F0
sg1288
S''
sg1289
I0
sg1290
S''
sg1291
(lp1323
sg1293
F0
sg1294
I00
sg1295
F0
sg1296
I1
sS'z'
F0
sg1297
S''
sg1298
I00
sg1299
I00
sg1247
I0
sg1301
I00
sg1302
I00
sg1303
I00
sg1304
S'/paddleHit1.caf'
p1324
sg1306
S''
sg1300
I0
sg1286
F0
sg1253
I0
sg1309
F100
sg1310
I00
sa(dp1325
g1235
F0
sg1236
F0
sg1237
S''
sg1238
S''
sg1239
S''
sg1256
S'0,219,22'
p1326
sg1241
F0
sg1242
S''
sg1243
F0
sg1244
S''
sg1245
F10
sg1246
I01
sg1248
F1
sg1249
F0.5
sg1250
F0.5
sg1251
I00
sg1307
I00
sg1252
I00
sg1254
F0.5
sg1255
F0.5
sg1240
I00
sg1258
S''
sg1259
F0
sg1260
S'0,0,0'
p1327
sg1262
F0
sg1263
S'0,0,0'
p1328
sg1265
S''
sg1266
I00
sg1267
I255
sg1268
I00
sg1269
S''
sg1270
I255
sg1271
I255
sg1272
I183
sg1273
I-235
sg1274
S''
sg1275
F0
sg1276
I0
sg1277
I00
sg1278
F0
sg1279
F0
sg1280
S''
sg1281
S'orangekid'
p1329
sg1283
F0
sg1284
I16
sg1285
S''
sg1308
I00
sg1287
F0
sg1288
S''
sg1289
I0
sg1290
S''
sg1291
(lp1330
sg1293
F0
sg1294
I00
sg1295
F0
sg1296
I1
sS'z'
F0
sg1297
S''
sg1298
I00
sg1299
I00
sg1247
I0
sg1301
I00
sg1302
I00
sg1303
I00
sg1304
S'/paddleHit1.caf'
p1331
sg1306
S''
sg1300
I0
sg1286
F0
sg1253
I0
sg1309
F100
sg1310
I00
sa(dp1332
g1235
F0
sg1236
F0
sg1237
S''
sg1238
S''
sg1239
S''
sg1256
S'0,219,22'
p1333
sg1241
F0
sg1242
S''
sg1243
F0
sg1244
S''
sg1245
F10
sg1246
I01
sg1248
F1
sg1249
F0.5
sg1250
F0.5
sg1251
I00
sg1307
I00
sg1252
I00
sg1254
F0.5
sg1255
F0.5
sg1240
I00
sg1258
S''
sg1259
F0
sg1260
S'0,0,0'
p1334
sg1262
F0
sg1263
S'0,0,0'
p1335
sg1265
S''
sg1266
I00
sg1267
I255
sg1268
I00
sg1269
S''
sg1270
I255
sg1271
I255
sg1272
I23
sg1273
I-291
sg1274
S''
sg1275
F0
sg1276
I0
sg1277
I00
sg1278
F0
sg1279
F0
sg1280
S''
sg1281
S'orangekid'
p1336
sg1283
F0
sg1284
I16
sg1285
S''
sg1308
I00
sg1287
F0
sg1288
S''
sg1289
I0
sg1290
S''
sg1291
(lp1337
sg1293
F0
sg1294
I00
sg1295
F0
sg1296
I1
sS'z'
F0
sg1297
S''
sg1298
I00
sg1299
I00
sg1247
I0
sg1301
I00
sg1302
I00
sg1303
I00
sg1304
S'/paddleHit1.caf'
p1338
sg1306
S''
sg1300
I0
sg1286
F0
sg1253
I0
sg1309
F100
sg1310
I00
sa(dp1339
g1235
F0
sg1236
F0
sg1237
S''
sg1238
S''
sg1239
S''
sg1256
S'0,219,22'
p1340
sg1241
F0
sg1242
S''
sg1243
F0
sg1244
S''
sg1245
F10
sg1246
I01
sg1248
F1
sg1249
F0.5
sg1250
F0.5
sg1251
I00
sg1307
I00
sg1252
I00
sg1254
F0.5
sg1255
F0.5
sg1240
I00
sg1258
S''
sg1259
F0
sg1260
S'0,0,0'
p1341
sg1262
F0
sg1263
S'0,0,0'
p1342
sg1265
S''
sg1266
I00
sg1267
I255
sg1268
I00
sg1269
S''
sg1270
I255
sg1271
I255
sg1272
I158
sg1273
I-137
sg1274
S''
sg1275
F0
sg1276
I0
sg1277
I00
sg1278
F0
sg1279
F0
sg1280
S''
sg1281
S'orangekid'
p1343
sg1283
F0
sg1284
I16
sg1285
S''
sg1308
I00
sg1287
F0
sg1288
S''
sg1289
I0
sg1290
S''
sg1291
(lp1344
sg1293
F0
sg1294
I00
sg1295
F0
sg1296
I1
sS'z'
F0
sg1297
S''
sg1298
I00
sg1299
I00
sg1247
I0
sg1301
I00
sg1302
I00
sg1303
I00
sg1304
S'/paddleHit1.caf'
p1345
sg1306
S''
sg1300
I0
sg1286
F0
sg1253
I0
sg1309
F80
sg1310
I00
sa(dp1346
g1235
F0
sg1236
F0
sg1237
S''
sg1238
S''
sg1239
S''
sg1256
S'0,219,22'
p1347
sg1241
F0
sg1242
S''
sg1243
F0
sg1244
S''
sg1245
F10
sg1246
I01
sg1248
F1
sg1249
F0.5
sg1250
F0.5
sg1251
I00
sg1307
I00
sg1252
I00
sg1254
F0.5
sg1255
F0.5
sg1240
I00
sg1258
S''
sg1259
F0
sg1260
S'0,0,0'
p1348
sg1262
F0
sg1263
S'0,0,0'
p1349
sg1265
S''
sg1266
I00
sg1267
I255
sg1268
I00
sg1269
S''
sg1270
I255
sg1271
I255
sg1272
I387
sg1273
I-255
sg1274
S''
sg1275
F0
sg1276
I0
sg1277
I00
sg1278
F0
sg1279
F0
sg1280
S''
sg1281
S'orangekid'
p1350
sg1283
F0
sg1284
I16
sg1285
S''
sg1308
I00
sg1287
F0
sg1288
S''
sg1289
I0
sg1290
S''
sg1291
(lp1351
sg1293
F0
sg1294
I00
sg1295
F0
sg1296
I1
sS'z'
F0
sg1297
S''
sg1298
I00
sg1299
I00
sg1247
I0
sg1301
I00
sg1302
I00
sg1303
I00
sg1304
S'/paddleHit1.caf'
p1352
sg1306
S''
sg1300
I0
sg1286
F0
sg1253
I0
sg1309
F70
sg1310
I00
sa(dp1353
g1235
F0
sg1236
F0
sg1237
S''
sg1286
F0
sg1238
S''
sg1239
S''
sg1256
S'0,219,22'
p1354
sg1241
F0
sg1242
S''
sg1243
F0
sg1244
S''
sg1245
F10
sg1246
I01
sg1248
F1
sg1249
F0.5
sg1250
F0.5
sg1251
I00
sg1252
I00
sg1310
I00
sg1254
F0.5
sg1255
F0.5
sg1240
I00
sg1258
S''
sg1259
F0
sg1260
S'0,0,0'
p1355
sg1262
F0
sg1263
S'0,0,0'
p1356
sg1265
S''
sg1266
I00
sg1267
I255
sg1268
I00
sg1269
S''
sg1270
I255
sg1271
I255
sg1272
I353
sg1273
I-323
sg1274
S''
sg1275
F0
sg1276
I0
sg1277
I00
sg1278
F0
sg1279
F0
sg1280
S''
sg1281
S'orangekid'
p1357
sg1283
F0
sg1284
I16
sg1285
S''
sg1308
I00
sg1287
F0
sg1288
S''
sg1289
I0
sg1290
S''
sg1291
(lp1358
sg1293
F0
sg1294
I00
sg1295
F0
sg1296
I1
sg1297
S''
sg1298
I00
sg1299
I00
sg1300
I0
sg1301
I00
sg1302
I00
sg1303
I00
sg1304
S'/paddleHit1.caf'
p1359
sg1306
S''
sg1247
I0
sg1253
I0
sS'z'
F0
sg1309
F70
sg1307
I00
sa(dp1360
g1235
F0
sg1236
F0
sg1237
S''
sg1238
S''
sg1239
S''
sg1240
I00
sg1241
F0
sg1242
S''
sg1243
F0
sg1244
S''
sg1245
F20
sg1246
I01
sg1247
I0
sg1248
F1
sg1249
F0.5
sg1250
F0.5
sg1251
I00
sg1252
I00
sg1253
I0
sg1254
F0.5
sg1255
F0.5
sg1256
S'255,0,255'
p1361
sg1258
S''
sg1259
F0
sg1260
S'128,0,128'
p1362
sg1262
F0
sg1263
S'0,0,0'
p1363
sg1265
S''
sg1266
I00
sg1267
I255
sg1268
I00
sg1269
S''
sg1270
I255
sg1271
I255
sg1272
F61
sg1273
F-317
sg1274
S''
sg1275
F0
sg1276
I0
sg1277
I00
sg1278
F0
sg1279
F0.20000000000000001
sg1280
S''
sg1281
S'orangekid'
p1364
sg1283
F0
sg1284
I16
sg1285
S''
sg1286
F0
sg1287
F0
sg1288
S'function T:setup ()\n\tPaddle.setup (self)\n\n\tself:fxResizeInit (10, 10, 20, 20, 70)\n\tself:fxBonusInit (1000, "/scoreBonusUp1.caf", true, self.onBonus)\nend\n\nfunction T:onBonus (side, x, y)\n\tscreen.bonusCount = screen.bonusCount + 1\n\t\n\tscreen:checkAchievement ()\nend'
p1365
sg1289
I0
sg1290
S''
sg1291
(lp1366
sg1293
F0
sg1294
I00
sg1295
F0
sg1296
I1
sg1297
S'bonus1'
p1367
sg1298
I00
sg1299
I01
sg1300
I1
sg1301
I00
sg1302
I00
sg1303
I00
sg1304
S''
sg1306
S''
sg1307
I00
sg1308
I00
sS'z'
F0
sg1309
F20
sg1310
I00
sa(dp1368
g1235
F0
sg1236
F0
sg1237
S''
sg1238
S''
sg1239
S''
sg1256
S'255,0,255'
p1369
sg1241
F0
sg1242
S''
sg1243
F0
sg1244
S''
sg1245
F20
sg1246
I01
sg1248
F1
sg1249
F0.5
sg1250
F0.5
sg1251
I00
sg1307
I00
sg1252
I00
sg1254
F0.5
sg1255
F0.5
sg1240
I00
sg1258
S''
sg1259
F0
sg1260
S'128,0,128'
p1370
sg1262
F0
sg1263
S'0,0,0'
p1371
sg1265
S''
sg1266
I00
sg1267
I255
sg1268
I00
sg1269
S''
sg1270
I255
sg1271
I255
sg1272
F378
sg1273
F-349
sg1274
S''
sg1275
F0
sg1276
I0
sg1277
I00
sg1278
F0
sg1279
F0.20000000000000001
sg1280
S''
sg1281
S'orangekid'
p1372
sg1283
F0
sg1284
I16
sg1285
S''
sg1308
I00
sg1287
F0
sg1288
S'function T:setup ()\n\tPaddle.setup (self)\n\n\tself:fxResizeInit (10, 10, 20, 20, 70)\n\tself:fxBonusInit (1000, "/scoreBonusUp1.caf", true, self.onBonus)\nend\n\nfunction T:onBonus (side, x, y)\n\tscreen.bonusCount = screen.bonusCount + 1\n\t\n\tscreen:checkAchievement ()\nend'
p1373
sg1289
I0
sg1290
S''
sg1291
(lp1374
sg1293
F0
sg1294
I00
sg1295
F0
sg1296
I1
sS'z'
F0
sg1297
S'bonus2'
p1375
sg1298
I00
sg1299
I01
sg1247
I0
sg1301
I00
sg1302
I00
sg1303
I00
sg1304
S''
sg1306
S''
sg1300
I1
sg1286
F0
sg1253
I0
sg1309
F20
sg1310
I00
sa(dp1376
g13
F0
sg14
F0
sg15
S'/buttonClick1.caf'
p1377
sg17
S'Input Mode'
p1378
sg19
I255
sg20
S''
sg37
I00
sg23
F0
sg24
F0
sg25
S''
sg26
F28
sg27
I01
sg252
F0
sg253
F0
sg254
F0
sg32
I01
sg89
I00
sg33
I00
sg256
F0
sg257
F0
sg21
S'255,255,255'
p1379
sg258
S''
sg39
F0
sg40
S'0,0,0'
p1380
sg42
F0
sg43
S'0,0,0'
p1381
sg45
I00
sg46
I01
sg262
I0
sg263
I00
sg49
I00
sg50
S''
sg51
I255
sg52
S''
sg53
F578
sg54
F90
sg55
S''
sg56
F0
sg264
I0
sg58
I00
sg59
F0
sg60
F0
sg61
S''
sg62
S'orangekid'
p1382
sg266
F0
sg65
I16
sg66
S''
sg267
I00
sg68
F0
sg69
S'function T:onEnter ()\n\tself:setupLabels ()\nend\n\nfunction T:onClick ()\n\tlocal inputMode = game.inputMode ()\n\n\tif inputMode == kInputModeSlide then\n\t\tinputMode = kInputModeJoystick\n\t\tmainHero:showMessageEmoticonDurationSound ("Use your thumbs like an human!", kEmoticonDevil, 5, "/elements/wow.caf")\n\telse\n\t\tinputMode = kInputModeSlide\n\t\tmainHero:showMessageEmoticonDurationSound ("Slide like a real square!", kEmoticonHappy, 5, "/elements/yeah.caf")\n\tend\n\n\tgame.setInputMode (inputMode)\n\tself:setupLabels ()\nend\n\nfunction T:setupLabels ()\n\tlocal inputMode = game.inputMode ()\n\tlocal l\n\n\tif inputMode == kInputModeSlide then\n\t\tl = "Slide Controls"\n\telse\n\t\tl = "Joystick Controls"\n\tend\n\n\tself:setLabel (l)\nend\n'
p1383
sg71
I0
sg72
S''
sg73
(lp1384
sg75
F0
sg76
I00
sg77
F0
sg78
I1
sS'z'
F0
sg79
S'inputMode'
p1385
sg81
I01
sg82
I00
sg840
I0
sg271
S''
sg85
I00
sg86
S'/paddleHit2.caf'
p1386
sg88
S''
sg83
I0
sg90
F0
sg255
I0
sg91
F150
sg849
I00
sa(dp1387
g13
F0
sg14
F0
sg15
S'/buttonClick1.caf'
p1388
sg90
F0
sg17
S'Input Mode'
p1389
sg19
I255
sg20
S''
sg37
I00
sg23
F0
sg24
F0
sg25
S''
sg26
F28
sg27
I01
sg252
F0
sg253
F0
sg254
F0
sg32
I01
sg33
I00
sg849
I00
sg256
F0
sg257
F0
sg21
S'255,255,255'
p1390
sg258
S''
sg39
F0
sg40
S'0,0,0'
p1391
sg42
F0
sg43
S'0,0,0'
p1392
sg45
I00
sg46
I01
sg262
I0
sg263
I00
sg49
I00
sg50
S''
sg51
I255
sg52
S''
sg53
F-176
sg54
F-194
sg55
S''
sg56
F0
sg264
I0
sg58
I00
sg59
F0
sg60
F0
sg61
S''
sg62
S'orangekid'
p1393
sg266
F0
sg65
I16
sg66
S''
sg267
I00
sg68
F0
sg69
S'function T:onEnter ()\n\tself:setupLabels ()\nend\n\nfunction T:onClick ()\n\tlocal inputMode = game.inputMode ()\n\n\tif inputMode == kInputModeSlide then\n\t\tinputMode = kInputModeJoystick\n\t\tmainHero:showMessageEmoticonDurationSound ("Use your thumbs like an human!", kEmoticonDevil, 5, "/elements/wow.caf")\n\telse\n\t\tinputMode = kInputModeSlide\n\t\tmainHero:showMessageEmoticonDurationSound ("Slide like a real square!", kEmoticonHappy, 5, "/elements/yeah.caf")\n\tend\n\n\tgame.setInputMode (inputMode)\n\tself:setupLabels ()\nend\n\nfunction T:setupLabels ()\n\tlocal inputMode = game.inputMode ()\n\tlocal l\n\n\tif inputMode == kInputModeSlide then\n\t\tl = "Slide Controls"\n\telse\n\t\tl = "Joystick Controls"\n\tend\n\n\tself:setLabel (l)\n\n\tscreen:setupInputMessages ()\nend\n'
p1394
sg71
I0
sg72
S''
sg73
(lp1395
sg75
F0
sg76
I00
sg77
F0
sg78
I1
sg79
S'inputMode'
p1396
sg81
I01
sg82
I00
sg83
I0
sg271
S''
sg85
I00
sg86
S'/paddleHit2.caf'
p1397
sg88
S''
sg840
I0
sg255
I0
sS'z'
F0
sg91
F150
sg89
I00
sa(dp1398
g13
F0
sg14
F0
sg15
S'/buttonClick1.caf'
p1399
sg17
S'Difficulty Level'
p1400
sg19
I255
sg20
S''
sg37
I00
sg23
F0
sg24
F0
sg25
S''
sg26
F28
sg27
I01
sg252
F0
sg253
F0
sg254
F0
sg32
I01
sg89
I00
sg33
I00
sg256
F0
sg257
F0
sg21
S'255,255,255'
p1401
sg258
S''
sg39
F0
sg40
S'0,0,0'
p1402
sg42
F0
sg43
S'0,0,0'
p1403
sg45
I00
sg46
I01
sg262
I0
sg263
I00
sg49
I00
sg50
S''
sg51
I255
sg52
S''
sg53
I-176
sg54
I-160
sg55
S''
sg56
F0
sg264
I0
sg58
I00
sg59
F0
sg60
F0
sg61
S''
sg62
S'orangekid'
p1404
sg266
F0
sg65
I16
sg66
S''
sg267
I00
sg68
F0
sg69
S'function T:onEnter ()\n\tself:setupLabels ()\nend\n\nfunction T:onClick ()\n\tlocal dl = game.difficultyLevel ()\n\n\tif dl == kDifficultyHigh then\n\t\tdl = kDifficultyLow\n\t\tmainHero:showMessageEmoticonDurationSound ("You want the easy way!", kEmoticonDevil, 5, "/elements/hey.caf")\n\telse\n\t\tdl = kDifficultyHigh\n\t\tmainHero:showMessageEmoticonDurationSound ("You have square squares!", kEmoticonHappy, 5, "/elements/yeah.caf")\n\tend\n\n\tgame.setDifficultyLevel (dl)\n\tself:setupLabels ()\nend\n\nfunction T:setupLabels ()\n\tlocal dl = game.difficultyLevel ()\n\tlocal l\n\n\tif dl == kDifficultyHigh then\n\t\tl = "Danger Mode"\n\telse\n\t\tl = "Normal Mode"\n\tend\n\n\tself:setLabel (l)\nend\n'
p1405
sg71
I0
sg72
S''
sg73
(lp1406
sg75
F0
sg76
I00
sg77
F0
sg78
I1
sS'z'
F0
sg79
S'difficultyLevel'
p1407
sg81
I01
sg82
I00
sg840
I0
sg271
S''
sg85
I00
sg86
S'/paddleHit2.caf'
p1408
sg88
S''
sg83
I0
sg90
F0
sg255
I0
sg91
F150
sg849
I00
sa(dp1409
g13
F0
sg14
F0
sg15
S'/buttonClick1.caf'
p1410
sg17
S'Input Mode'
p1411
sg19
I255
sg20
S''
sg37
I00
sg23
F0
sg24
F0
sg25
S''
sg26
F28
sg27
I01
sg840
I0
sg252
F0
sg253
F0
sg254
F0
sg32
I01
sg33
I00
sg255
I0
sg256
F0
sg257
F0
sg21
S'255,255,255'
p1412
sg258
S''
sg39
F0
sg40
S'0,0,0'
p1413
sg42
F0
sg43
S'0,0,0'
p1414
sg45
I00
sg46
I01
sg262
I0
sg263
I00
sg49
I00
sg50
S''
sg51
I255
sg52
S''
sg53
F95
sg54
F-94
sg55
S''
sg56
F0
sg264
I0
sg58
I00
sg59
F0
sg60
F0
sg61
S''
sg62
S'orangekid'
p1415
sg266
F0
sg65
I16
sg66
S''
sg90
F0
sg68
F0
sg69
S'function T:onEnter ()\n\tself:setupLabels ()\nend\n\nfunction T:onClick ()\n\tlocal inputMode = game.inputMode ()\n\n\tif inputMode == kInputModeSlide then\n\t\tinputMode = kInputModeJoystick\n\t\tmainHero:showMessageEmoticonDurationSound ("Use your thumbs like an human!", kEmoticonDevil, 5, "/elements/wow.caf")\n\telse\n\t\tinputMode = kInputModeSlide\n\t\tmainHero:showMessageEmoticonDurationSound ("Slide like a real square!", kEmoticonHappy, 5, "/elements/yeah.caf")\n\tend\n\n\tgame.setInputMode (inputMode)\n\tscreen:enableGravity (true)\n\tself:setupLabels ()\nend\n\nfunction T:setupLabels ()\n\tlocal inputMode = game.inputMode ()\n\tlocal l\n\n\tif inputMode == kInputModeSlide then\n\t\tl = "Slide Controls"\n\telse\n\t\tl = "Joystick Controls"\n\tend\n\n\tself:setLabel (l)\nend\n'
p1416
sg71
I0
sg72
S''
sg73
(lp1417
sg75
F0
sg76
I00
sg77
F0
sg78
I1
sg79
S'inputMode'
p1418
sg81
I01
sg82
I00
sg83
I0
sg271
S''
sg85
I00
sg86
S'/paddleHit2.caf'
p1419
sg88
S''
sg89
I00
sg267
I00
sS'z'
F0
sg91
F135
sg849
I00
sa(dp1420
g13
F0
sg14
F0
sg15
S'/buttonClick1.caf'
p1421
sg90
F0
sg17
S'Difficulty Level'
p1422
sg19
I255
sg20
S''
sg37
I00
sg23
F0
sg24
F0
sg25
S''
sg26
F28
sg27
I01
sg252
F0
sg253
F0
sg254
F0
sg32
I01
sg33
I00
sg849
I00
sg256
F0
sg257
F0
sg21
S'255,255,255'
p1423
sg258
S''
sg39
F0
sg40
S'0,0,0'
p1424
sg42
F0
sg43
S'0,0,0'
p1425
sg45
I00
sg46
I01
sg262
I0
sg263
I00
sg49
I00
sg50
S''
sg51
I255
sg52
S''
sg53
F233
sg54
F-94
sg55
S''
sg56
F0
sg264
I0
sg58
I00
sg59
F0
sg60
F0
sg61
S''
sg62
S'orangekid'
p1426
sg266
F0
sg65
I16
sg66
S''
sg267
I00
sg68
F0
sg69
S'function T:onEnter ()\n\tself:setupLabels ()\nend\n\nfunction T:onClick ()\n\tlocal dl = game.difficultyLevel ()\n\n\tif dl == kDifficultyHigh then\n\t\tdl = kDifficultyLow\n\t\tmainHero:showMessageEmoticonDurationSound ("You want the easy way!", kEmoticonDevil, 5, "/elements/hey.caf")\n\telse\n\t\tdl = kDifficultyHigh\n\t\tmainHero:showMessageEmoticonDurationSound ("You have square squares!", kEmoticonHappy, 5, "/elements/yeah.caf")\n\tend\n\n\tgame.setDifficultyLevel (dl)\n\tscreen:enableGravity (true)\n\tself:setupLabels ()\nend\n\nfunction T:setupLabels ()\n\tlocal dl = game.difficultyLevel ()\n\tlocal l\n\n\tif dl == kDifficultyHigh then\n\t\tl = "Danger Mode"\n\telse\n\t\tl = "Normal Mode"\n\tend\n\n\tself:setLabel (l)\nend\n'
p1427
sg71
I0
sg72
S''
sg73
(lp1428
sg75
F0
sg76
I00
sg77
F0
sg78
I1
sg79
S'difficultyLevel'
p1429
sg81
I01
sg82
I00
sg83
I0
sg271
S''
sg85
I00
sg86
S'/paddleHit2.caf'
p1430
sg88
S''
sg840
I0
sg255
I0
sS'z'
F0
sg91
F130
sg89
I00
sa(dp1431
g13
F0
sg14
F0
sg15
S'/buttonClick1.caf'
p1432
sg17
S'Slide Control'
p1433
sg19
I255
sg20
S''
sg21
S'255,255,255'
p1434
sg23
F0
sg24
F0
sg25
S''
sg26
F28
sg27
I01
sg840
I0
sg252
F0
sg253
F0
sg254
F0
sg32
I01
sg33
I00
sg255
I0
sg256
F0
sg257
F0
sg37
I00
sg258
S''
sg39
F0
sg40
S'0,0,0'
p1435
sg42
F0
sg43
S'0,0,0'
p1436
sg45
I00
sg46
I00
sg262
I0
sg263
I00
sg49
I00
sg50
S''
sg51
I255
sg52
S''
sg53
F1090
sg54
F601
sg55
S''
sg56
F0
sg264
I0
sg58
I00
sg59
F0
sg60
F0
sg61
S''
sg62
S'orangekid'
p1437
sg266
F0
sg65
I16
sg66
S''
sg90
F0
sg68
F0
sg69
S'\nfunction T:onClick ()\n\tgame.levelMoveMainHeroToScreenNameAtPosition ("helpControl1", 100, 100)\nend\n'
p1438
sg71
I0
sg72
S''
sg73
(lp1439
sg75
F0
sg76
I00
sg77
F0
sg78
I1
sg79
S'helpControl1'
p1440
sg81
I01
sg82
I00
sg83
I0
sg271
S''
sg85
I00
sg86
S'/paddleHit2.caf'
p1441
sg88
S''
sg89
I00
sg267
I00
sS'z'
F0
sg91
F120
sg849
I00
sa(dp1442
g13
F0
sg14
F0
sg15
S'/buttonClick1.caf'
p1443
sg17
S'Back'
p1444
sg19
I255
sg20
S''
sg37
I00
sg23
F0
sg24
F0
sg25
S''
sg26
F28
sg27
I01
sg492
F0
sg493
F0
sg494
F0
sg32
I01
sg89
I00
sg33
I00
sg496
F0
sg497
F0
sg21
S'255,255,255'
p1445
sg499
S''
sg39
F0
sg40
S'0,0,0'
p1446
sg42
F0
sg43
S'0,0,0'
p1447
sg45
I00
sg46
I00
sg502
I0
sg503
I00
sg49
I00
sg50
S''
sg51
I255
sg52
S''
sg53
F1337
sg54
F1760
sg55
S''
sg56
F0
sg504
I0
sg58
I00
sg59
F0
sg60
F0
sg61
S''
sg62
S'orangekid'
p1448
sg506
F0
sg65
I16
sg66
S''
sg507
I00
sg68
F0
sg69
S'\nfunction T:onClick ()\n\tgame.levelMoveMainHeroToScreenNameAtPosition ("help", 50, 230)\nend\n'
p1449
sg71
I0
sg72
S''
sg73
(lp1450
sg75
F0
sg76
I00
sg77
F0
sg78
I1
sS'z'
F0
sg79
S'newEscapeBack'
p1451
sg81
I01
sg82
I00
sg513
I0
sg511
S''
sg85
I00
sg86
S'/paddleHit2.caf'
p1452
sg88
S''
sg83
I0
sg90
F0
sg514
I0
sg91
F100
sg495
I00
sa(dp1453
g13
F0
sg14
F0
sg15
S'/buttonClick1.caf'
p1454
sg17
S'Buy All Levels'
p1455
sg19
I255
sg20
S''
sg21
S'255,0,0'
p1456
sg23
F0
sg24
F0
sg25
S''
sg26
F28
sg27
I01
sg663
I0
sg643
F0
sg644
F0
sg645
F0
sg32
I01
sg33
I00
sg664
I0
sg647
F0
sg648
F0
sg37
I00
sg649
S''
sg39
F0
sg40
S'255,150,0'
p1457
sg42
F0
sg43
S'0,0,0'
p1458
sg45
I00
sg46
I00
sg652
I0
sg654
I00
sg49
I00
sg50
S''
sg51
I255
sg52
S''
sg53
F82
sg54
F267
sg55
S''
sg56
F0
sg655
I0
sg58
I00
sg59
F0
sg60
F0.80000000000000004
sg61
S''
sg62
S'orangekid'
p1459
sg657
F0
sg65
I16
sg66
S''
sg653
I00
sg68
F0
sg69
S'\nfunction T:onClick ()\n\tlevel:buyAllLevels ()\nend\n'
p1460
sg71
I0
sg72
S''
sg73
(lp1461
sg75
F0
sg76
I00
sg77
F0
sg78
I1
sg79
S'buyLevels1'
p1462
sg81
I01
sg82
I00
sg83
I1
sg661
S''
sg85
I00
sg86
S'/paddleHit2.caf'
p1463
sg88
S''
sg89
I00
sg90
F0
sS'z'
F0
sg91
F203
sg646
I00
sa(dp1464
g13
F0
sg14
F0
sg15
S'/buttonClick1.caf'
p1465
sg17
S'Buy All Levels'
p1466
sg19
I255
sg20
S''
sg21
S'255,0,0'
p1467
sg23
F0
sg24
F0
sg25
S''
sg26
F28
sg27
I01
sg643
F0
sg644
F0
sg645
F0
sg32
I01
sg89
I00
sg33
I00
sg647
F0
sg648
F0
sg37
I00
sg649
S''
sg39
F0
sg40
S'255,150,0'
p1468
sg42
F0
sg43
S'0,0,0'
p1469
sg45
I00
sg46
I00
sg652
I0
sg654
I00
sg49
I00
sg50
S''
sg51
I255
sg52
S''
sg53
F530
sg54
F226
sg55
S''
sg56
F0
sg655
I0
sg58
I00
sg59
F0
sg60
F0.80000000000000004
sg61
S''
sg62
S'orangekid'
p1470
sg657
F0
sg65
I16
sg66
S''
sg90
F0
sg68
F0
sg69
S'\nfunction T:onClick ()\n\tlevel:buyAllLevels ()\nend\n'
p1471
sg71
I0
sg72
S''
sg73
(lp1472
sg75
F0
sg76
I00
sg77
F0
sg78
I1
sS'z'
F0
sg79
S'buyLevels2'
p1473
sg81
I01
sg82
I00
sg663
I0
sg661
S''
sg85
I00
sg86
S'/paddleHit2.caf'
p1474
sg88
S''
sg83
I1
sg653
I00
sg664
I0
sg91
F151
sg646
I00
sa(dp1475
g13
F0
sg14
F0
sg15
S'/buttonClick1.caf'
p1476
sg90
F0
sg17
S'Input Mode'
p1477
sg19
I255
sg20
S''
sg37
I00
sg23
F0
sg24
F0
sg25
S''
sg26
F28
sg27
I01
sg252
F0
sg253
F0
sg254
F0
sg32
I01
sg33
I00
sg849
I00
sg256
F0
sg257
F0
sg21
S'255,255,255'
p1478
sg258
S''
sg39
F0
sg40
S'0,0,0'
p1479
sg42
F0
sg43
S'0,0,0'
p1480
sg45
I00
sg46
I01
sg262
I0
sg263
I00
sg49
I00
sg50
S''
sg51
I255
sg52
S''
sg53
I96
sg54
I520
sg55
S''
sg56
F0
sg264
I0
sg58
I00
sg59
F0
sg60
F0
sg61
S''
sg62
S'orangekid'
p1481
sg266
F0
sg65
I16
sg66
S''
sg267
I00
sg68
F0
sg69
S'function T:onEnter ()\n\tself:setupLabels ()\nend\n\nfunction T:onClick ()\n\tlocal inputMode = game.inputMode ()\n\n\tif inputMode == kInputModeSlide then\n\t\tinputMode = kInputModeJoystick\n\t\tmainHero:showMessageEmoticonDurationSound ("Use your thumbs like an human!", kEmoticonDevil, 5, "/elements/wow.caf")\n\telse\n\t\tinputMode = kInputModeSlide\n\t\tmainHero:showMessageEmoticonDurationSound ("Slide like a real square!", kEmoticonHappy, 5, "/elements/yeah.caf")\n\tend\n\n\tgame.setInputMode (inputMode)\n\tself:setupLabels ()\nend\n\nfunction T:setupLabels ()\n\tlocal inputMode = game.inputMode ()\n\tlocal l\n\n\tif inputMode == kInputModeSlide then\n\t\tl = "Slide Controls"\n\telse\n\t\tl = "Joystick Controls"\n\tend\n\n\tself:setLabel (l)\nend\n'
p1482
sg71
I0
sg72
S''
sg73
(lp1483
sg75
F0
sg76
I00
sg77
F0
sg78
I1
sg79
S'inputMode'
p1484
sg81
I01
sg82
I00
sg83
I0
sg271
S''
sg85
I00
sg86
S'/paddleHit2.caf'
p1485
sg88
S''
sg840
I0
sg255
I0
sS'z'
F0
sg91
F180
sg89
I00
sa(dp1486
g13
F0
sg14
F0
sg15
S'/buttonClick1.caf'
p1487
sg17
S'Difficulty Level'
p1488
sg19
I255
sg20
S''
sg37
I00
sg23
F0
sg24
F0
sg25
S''
sg26
F28
sg27
I01
sg252
F0
sg253
F0
sg254
F0
sg32
I01
sg89
I00
sg33
I00
sg256
F0
sg257
F0
sg21
S'255,255,255'
p1489
sg258
S''
sg39
F0
sg40
S'0,0,0'
p1490
sg42
F0
sg43
S'0,0,0'
p1491
sg45
I00
sg46
I01
sg262
I0
sg263
I00
sg49
I00
sg50
S''
sg51
I255
sg52
S''
sg53
I96
sg54
I560
sg55
S''
sg56
F0
sg264
I0
sg58
I00
sg59
F0
sg60
F0
sg61
S''
sg62
S'orangekid'
p1492
sg266
F0
sg65
I16
sg66
S''
sg267
I00
sg68
F0
sg69
S'function T:onEnter ()\n\tself:setupLabels ()\nend\n\nfunction T:onClick ()\n\tlocal dl = game.difficultyLevel ()\n\n\tif dl == kDifficultyHigh then\n\t\tdl = kDifficultyLow\n\t\tmainHero:showMessageEmoticonDurationSound ("You want the easy way!", kEmoticonDevil, 5, "/elements/hey.caf")\n\telse\n\t\tdl = kDifficultyHigh\n\t\tmainHero:showMessageEmoticonDurationSound ("You have square squares!", kEmoticonHappy, 5, "/elements/yeah.caf")\n\tend\n\n\tgame.setDifficultyLevel (dl)\n\tself:setupLabels ()\nend\n\nfunction T:setupLabels ()\n\tlocal dl = game.difficultyLevel ()\n\tlocal l\n\n\tif dl == kDifficultyHigh then\n\t\tl = "Danger Mode"\n\telse\n\t\tl = "Normal Mode"\n\tend\n\n\tself:setLabel (l)\nend\n'
p1493
sg71
I0
sg72
S''
sg73
(lp1494
sg75
F0
sg76
I00
sg77
F0
sg78
I1
sS'z'
F0
sg79
S'difficultyLevel'
p1495
sg81
I01
sg82
I00
sg840
I0
sg271
S''
sg85
I00
sg86
S'/paddleHit2.caf'
p1496
sg88
S''
sg83
I0
sg90
F0
sg255
I0
sg91
F180
sg849
I00
sasS'friction'
p1497
F0
sS'screens'
p1498
(lp1499
(dp1500
S'heroStartSpeedX'
p1501
F0
sS'heroStartSpeedY'
p1502
F0
sS'friction'
p1503
F0
sS'kScreenFlagScriptOnExit'
p1504
I01
sS'title'
p1505
S''
sS'descriptionColor'
p1506
S'200,200,200'
p1507
sS'bgImage0'
p1508
S''
sg53
F0
sg54
F0
sS'heroStartPositionY'
p1509
F0
sS'heroStartPositionX'
p1510
F0
sS'bgImage1'
p1511
S''
sg61
S''
sg66
S''
sS'bgImage0PositionY'
p1512
F0
sS'audioSideLeftSound'
p1513
S''
sS'isCheckpoint'
p1514
I00
sS'accelerationMinX'
p1515
F-100
sS'accelerationMinY'
p1516
F-100
sS'bgImage2'
p1517
S''
sS'bgImage3'
p1518
S''
sg79
S'mainMenu'
p1519
sS'titleColor'
p1520
S'255,255,255'
p1521
sS'borderSizeLeft'
p1522
I5
sS'bgImage1PositionY'
p1523
F0
sS'bgImage1PositionX'
p1524
F0
sS'bgImage2Opacity'
p1525
I180
sS'bgImage2ShowDuration'
p1526
F0.5
sg8
S''
sS'messageEnabled'
p1527
I00
sS'kScreenFlagTopSideClosed'
p1528
I01
sS'borderSizeTop'
p1529
I5
sg21
S'0,100,0'
p1530
sg40
S'0,0,0'
p1531
sg73
(lp1532
sS'kScreenFlagScriptUpdate '
p1533
I00
sg51
I255
sS'lightGridOpacity'
p1534
I0
sS'messageColor'
p1535
S'200,200,200'
p1536
sS'maxSpeedX'
p1537
F0
sS'maxSpeedY'
p1538
F0
sS'bgImage3Opacity'
p1539
I180
sS'borderSizeRight'
p1540
I5
sS'difficulty'
p1541
I0
sg83
I0
sS'borderSideBottomColor'
p1542
S'255,255,255'
p1543
sg88
S''
sS'scorePerBorderHit'
p1544
I0
sS'kScreenFlagLeftSideClosed'
p1545
I01
sg7
F100
sS'accelerationMaxY'
p1546
F100
sS'bgImage1Opacity'
p1547
I180
sg50
S''
sS'audioSideTopSound'
p1548
S''
sS'accelerationInputX'
p1549
I00
sS'gravityX'
p1550
F0
sS'gravityY'
p1551
F0
sg91
F480
sS'bgImage0PositionX'
p1552
F0
sS'accelerationInputY'
p1553
I01
sS'accelerationFactorX'
p1554
F1
sS'accelerationFactorY'
p1555
F1
sS'borderSideTopColor'
p1556
S'255,255,255'
p1557
sS'accelerationViscosityY'
p1558
F0.75
sS'accelerationViscosityX'
p1559
F0.75
sS'bgImage1ShowDuration'
p1560
F0.5
sS'availableTime'
p1561
F0
sS'messageOpacity'
p1562
I255
sS'bgImage0Opacity'
p1563
I180
sg78
I0
sS'audioBackgroundMusic'
p1564
S''
sS'bgImage3ShowDuration'
p1565
F0.5
sg10
(lp1566
sS'bgImage3PositionY'
p1567
F0
sS'bgImage0ShowDuration'
p1568
F0.5
sS'audioSideBottomSound'
p1569
S''
sS'kScreenFlagBottomSideClosed'
p1570
I01
sS'kScreenFlagScriptOnEnter'
p1571
I01
sS'kScreenFlagScriptUpdate'
p1572
I01
sS'minSpeedX'
p1573
F0
sS'minSpeedY'
p1574
F0
sS'bgImage3PositionX'
p1575
F0
sS'bgImage2PositionX'
p1576
F0
sS'bgImage2PositionY'
p1577
F0
sS'description'
p1578
S'Escape from Pongland'
p1579
sS'borderSizeBottom'
p1580
I5
sg60
F0
sg69
S'function T:setup ()\n\tScreen.setup (self)\nend\n\nfunction T:onEnter ()\n\tlocal b = game.isFreeVersion () and not game.areAllLevelsPurchased ()\t\n\tlevel:paddleWithName ("buyLevels1"):setEnabled (b)\n\n\tlevel:paddleWithName ("rateNow"):setEnabled (game.shouldRate ())\n\tlevel:paddleWithName ("viewTrailer"):setEnabled (not game.wasBe2TrailerViewed ())\n\n\tlocal messages\n\tmessages = {\n\t\t{kMessageTimeout, 5},\n\t\t{mainHero, "Hello big fella!", kEmoticonHappy, 4, "", 5},\n\t\t{mainHero, "Let me introduce myself: I am Be2 the square.", kEmoticonHappy, 8, "", 11},\n\t\t{mainHero, "AND I WANT TO GET OUT OF HERE!", kEmoticonAngry, 8, "", 15},\n\t\t{"newEscape", "Tap here to start a new glorious quest toward freedom.", kEmoticonSurprised, 8, "", 10},\n\t\t{"trainingFields", "Tap here to train your moving skills with the STRANGE control modes.", kEmoticonAngel, 8, "", 10},\n\t}\n\n\tself:startMessagesScript ("introMessages", messages)\n\nend\n\nfunction T:onExit ()\n\tself:stopMessagesScript ("introMessages")\nend\n'
p1581
sS'lightGridOpacityDuration'
p1582
F0.29999999999999999
sS'kScreenFlagRightSideClosed'
p1583
I01
sg26
F320
sS'borderSideRightColor'
p1584
S'255,255,255'
p1585
sS'borderSideLeftColor'
p1586
S'255,255,255'
p1587
sa(dp1588
S'heroStartSpeedX'
p1589
F0
sS'heroStartSpeedY'
p1590
F0
sS'friction'
p1591
F0
sg1504
I01
sg1505
S'New Escape'
p1592
sg1506
S'200,200,200'
p1593
sS'bgImage0'
p1594
S''
sg53
F480
sg54
F0
sS'heroStartPositionY'
p1595
F0
sS'heroStartPositionX'
p1596
F0
sS'bgImage1'
p1597
S''
sg61
S''
sg66
S''
sS'bgImage0PositionY'
p1598
F0
sg1513
S''
sS'isCheckpoint'
p1599
I00
sg1515
F-100
sg1516
F-100
sS'bgImage2'
p1600
S''
sS'bgImage3'
p1601
S''
sg79
S'newEscape'
p1602
sg1520
S'255,255,255'
p1603
sg1522
I5
sS'bgImage1PositionY'
p1604
F0
sS'bgImage1PositionX'
p1605
F0
sS'bgImage2Opacity'
p1606
I180
sS'bgImage2ShowDuration'
p1607
F0.5
sg8
S''
sg1527
I00
sg1528
I01
sg1529
I5
sg21
S'0,100,0'
p1608
sg40
S'0,0,0'
p1609
sg73
(lp1610
sg51
I255
sg1534
I0
sg1535
S'200,200,200'
p1611
sg1537
F0
sg1538
F0
sg1580
I5
sS'bgImage3Opacity'
p1612
I180
sg1540
I5
sg1541
I0
sg83
I0
sS'borderSideBottomColor'
p1613
S'255,255,255'
p1614
sg88
S''
sS'scorePerBorderHit'
p1615
I0
sg1545
I01
sg7
F100
sg1546
F100
sS'bgImage1Opacity'
p1616
I180
sg50
S''
sg1548
S''
sS'bgImage0PositionX'
p1617
F0
sS'gravityX'
p1618
F0
sS'gravityY'
p1619
F0
sg91
F480
sg1549
I00
sg1553
I01
sg1554
F1
sg1555
F1
sS'borderSideTopColor'
p1620
S'255,255,255'
p1621
sg1558
F0.75
sg1559
F0.75
sS'bgImage1ShowDuration'
p1622
F0.5
sg1561
F0
sg1562
I255
sS'bgImage0Opacity'
p1623
I180
sg78
I0
sg1564
S''
sS'bgImage3ShowDuration'
p1624
F0.5
sg10
(lp1625
sS'bgImage3PositionY'
p1626
F0
sS'bgImage0ShowDuration'
p1627
F0.5
sg1569
S''
sg1570
I01
sg1571
I01
sS'kScreenFlagScriptUpdate'
p1628
I01
sg1573
F0
sg1574
F0
sS'bgImage3PositionX'
p1629
F0
sS'bgImage2PositionX'
p1630
F0
sS'bgImage2PositionY'
p1631
F0
sg1578
S''
sg1533
I00
sg60
F0
sg69
S'function T:onEnter ()\n\tlocal b = game.isFreeVersion () and not game.areAllLevelsPurchased ()\t\n\tlevel:paddleWithName ("buyLevels2"):setEnabled (b)\n\n\tlocal messages\n\tmessages = {\n\t\t{kMessageTimeout, 5},\n\t\t{"newEscapeStart", "Tap here to start a full escape.", kEmoticonSurprised, 5, "", 6},\n\t\t{"newEscapeFrom", "Tap here to try an escape starting from any unlocked level.", kEmoticonAngel, 6, "", 7},\n\t\t{"inputMode", "Select you preferred input mode: slide or joystick.", kEmoticonSurprised, 5, "", 6},\n\t\t{"difficultyLevel", "Set your desired difficulty here!", kEmoticonSurprised, 5, "", 0},\n\t}\n\n\tself:startMessagesScript ("introMessages", messages)\n\nend\n\nfunction T:onExit ()\n\tself:stopMessagesScript ("introMessages")\nend\n\nfunction T:startLevel ()\n\tlocal levelIndex, levelTitle = game.levelCurrent ()\n\n\tif game.levelAvailable (levelIndex) then\n\t\tgame.startGameWithLevelIndex (levelIndex, kGMQuest, true)\n\telse\n\t\tgame.hudShowTimerLabel ("Locked", "/scoreBonusDown1.caf")\n\tend\nend\n\nfunction T:setLevel (levelIndex, levelTitle)\n\tlocal paddle = level:paddleWithName ("newEscapeFrom")\n\tlocal b = game.levelAvailable (levelIndex)\n\tlocal opacity = 255\n\t\n\tif not b then opacity = 128 end\n\n\tpaddle:setLabel (string.format ("Start from %s", levelTitle))\n\n\tlocal paddle = level:paddleWithName ("newEscapeFromThumbnailImage")\n\tpaddle:setTopImage (game.levelThumbnailImageName (levelIndex), 0.5, 0.5, 128, 86, 0.5, 0.5, opacity, 0)\nend\n\n'
p1632
sg1582
F0.29999999999999999
sg1583
I01
sg26
F320
sS'borderSideRightColor'
p1633
S'255,255,255'
p1634
sS'borderSideLeftColor'
p1635
S'255,255,255'
p1636
sa(dp1637
S'heroStartSpeedX'
p1638
F0
sS'heroStartSpeedY'
p1639
F0
sS'friction'
p1640
F0
sg1504
I00
sg1505
S'Settings'
p1641
sg1506
S'200,200,200'
p1642
sg1594
S''
sg53
F-2
sg54
F331
sS'heroStartPositionY'
p1643
F0
sS'heroStartPositionX'
p1644
F0
sg1597
S''
sg61
S''
sg66
S''
sg1598
F0
sg1513
S''
sS'isCheckpoint'
p1645
I00
sg1515
F-100
sg1516
F-100
sg1600
S''
sg1601
S''
sg79
S'settings'
p1646
sg1520
S'255,255,255'
p1647
sg1522
I5
sg1604
F0
sg1605
F0
sg1606
I180
sg1607
F0.5
sg8
S''
sg1527
I00
sg1528
I01
sg1529
I5
sg21
S'0,100,0'
p1648
sg40
S'0,0,0'
p1649
sg73
(lp1650
sg51
I255
sg1534
I0
sg1535
S'200,200,200'
p1651
sg1537
F0
sg1538
F0
sg1580
I5
sg1612
I180
sg1540
I5
sg1541
I0
sg83
I0
sS'borderSideBottomColor'
p1652
S'255,255,255'
p1653
sg88
S''
sS'scorePerBorderHit'
p1654
I0
sg1545
I01
sg7
F100
sg1546
F100
sg1616
I180
sg50
S''
sg1548
S''
sg1549
I00
sS'gravityX'
p1655
F0
sS'gravityY'
p1656
F0
sg91
F480
sg1617
F0
sg1553
I01
sg1554
F1
sg1555
F1
sS'borderSideTopColor'
p1657
S'255,255,255'
p1658
sg1558
F0.75
sg1559
F0.75
sg1622
F0.5
sg1561
F0
sg1562
I255
sg1623
I180
sg78
I0
sg1564
S''
sg1624
F0.5
sg10
(lp1659
sg1626
F0
sg1627
F0.5
sg1569
S''
sg1570
I01
sg1571
I00
sS'kScreenFlagScriptUpdate'
p1660
I00
sg1573
F0
sg1574
F0
sg1629
F0
sg1630
F0
sg1631
F0
sg1578
S'Squares are flexible!'
p1661
sg1533
I00
sg60
F0
sg69
S''
sg1582
F0.29999999999999999
sg1583
I01
sg26
F320
sS'borderSideRightColor'
p1662
S'255,255,255'
p1663
sS'borderSideLeftColor'
p1664
S'255,255,255'
p1665
sa(dp1666
S'heroStartSpeedX'
p1667
F0
sS'heroStartSpeedY'
p1668
F0
sS'friction'
p1669
F0
sg1504
I00
sg1505
S'About'
p1670
sg1506
S'200,200,200'
p1671
sg1580
I5
sg53
F121
sg54
F736
sS'heroStartPositionY'
p1672
F0
sS'heroStartPositionX'
p1673
F0
sg1597
S''
sg1594
S''
sg61
S''
sg66
S''
sg1598
F150
sg1513
S''
sS'isCheckpoint'
p1674
I00
sg1515
F-100
sg1516
F-100
sg1600
S''
sg1601
S''
sg79
S'about'
p1675
sg1520
S'255,255,255'
p1676
sg1522
I5
sg1604
F0
sg1605
F0
sg1606
I180
sg1607
F0.5
sg8
S''
sg1527
I00
sg1528
I01
sg1529
I5
sg21
S'13,126,215'
p1677
sg40
S'0,0,0'
p1678
sg73
(lp1679
sg51
I255
sg1534
I0
sg1535
S'200,200,200'
p1680
sg1537
F0
sg1538
F0
sg1612
I180
sg1540
I5
sg1541
I0
sg83
I0
sS'borderSideBottomColor'
p1681
S'255,255,255'
p1682
sg88
S''
sS'scorePerBorderHit'
p1683
I0
sg1545
I01
sg7
F100
sg1546
F100
sg1616
I180
sg50
S''
sg1548
S''
sg1617
F150
sS'gravityX'
p1684
F0
sS'gravityY'
p1685
F0
sg91
F480
sg1549
I00
sg1553
I01
sg1554
F1
sg1555
F1
sS'borderSideTopColor'
p1686
S'255,255,255'
p1687
sg1558
F0.75
sg1559
F0.75
sg1622
F0.5
sg1561
F0
sg1562
I255
sg1623
I255
sg78
I0
sg1564
S''
sg1624
F0.5
sg10
(lp1688
sg1626
F0
sg1627
F0.5
sg1569
S''
sg1570
I01
sg1571
I00
sS'kScreenFlagScriptUpdate'
p1689
I00
sg1573
F0
sg1574
F0
sg1629
F0
sg1630
F0
sg1631
F0
sg1578
S'Information is power'
p1690
sg1533
I00
sg60
F0
sg69
S''
sg1582
F0.29999999999999999
sg1583
I01
sg26
F320
sS'borderSideRightColor'
p1691
S'255,255,255'
p1692
sS'borderSideLeftColor'
p1693
S'255,255,255'
p1694
sa(dp1695
S'heroStartSpeedX'
p1696
F0
sS'heroStartSpeedY'
p1697
F0
sS'friction'
p1698
F0
sg1504
I01
sg1505
S'Training Field - Move'
p1699
sg1506
S'200,200,200'
p1700
sg1594
S''
sg53
F-499
sg54
F-375
sS'heroStartPositionY'
p1701
F0
sS'heroStartPositionX'
p1702
F0
sg1597
S''
sg61
S''
sg66
S''
sg1598
F0
sg1513
S''
sS'isCheckpoint'
p1703
I00
sg1515
F-100
sg1516
F-100
sg1600
S''
sg1601
S''
sg79
S'trainingFieldMove'
p1704
sg1520
S'255,255,255'
p1705
sg1522
I5
sg1604
F0
sg1605
F0
sg1606
I180
sg1607
F0.5
sg8
S''
sg1527
I00
sg1528
I01
sg1529
I5
sg21
S'79,75,137'
p1706
sg40
S'0,0,0'
p1707
sg73
(lp1708
sg1533
I00
sg51
I255
sg1534
I0
sg1535
S'200,200,200'
p1709
sg1537
F0
sg1538
F0
sg1612
I180
sg1540
I5
sg1541
I0
sg83
I0
sS'borderSideBottomColor'
p1710
S'255,255,255'
p1711
sg88
S''
sS'scorePerBorderHit'
p1712
I0
sg1545
I01
sg7
F100
sg1546
F100
sg1616
I180
sg50
S''
sg1548
S''
sg1549
I01
sS'gravityX'
p1713
F0
sS'gravityY'
p1714
F0
sg91
F480
sg1617
F0
sg1553
I01
sg1554
F2
sg1555
F2
sS'borderSideTopColor'
p1715
S'255,255,255'
p1716
sg1558
F0
sg1559
F0
sg1622
F0.5
sg1561
F0
sg1562
I255
sg1623
I180
sg78
I0
sg1564
S''
sg1624
F0.5
sg10
(lp1717
sg1626
F0
sg1627
F0.5
sg1569
S''
sg1570
I01
sg1571
I01
sg1660
I01
sg1573
F0
sg1574
F0
sg1629
F0
sg1630
F0
sg1631
F0
sg1578
S'Try to move and stop inside the target!'
p1718
sg1580
I5
sg60
F0
sg69
S'function T:setupInputMessages ()\n\tlocal inputMode = game.inputMode ()\n\tlocal messages\n\n\tif inputMode == kInputModeSlide then\n\t\tmessages = {\n\t\t\t{mainHero, "Hi there! You are using the SLIDE control mode.", kEmoticonHappy, 5, "", 5},\n\t\t\t{mainHero, "This is a simple playground where you can practice my movement mechanics.", kEmoticonHappy, 7, "", 8},\n\t\t\t{mainHero, "You can CHANGE my TRAJECTORY SLIDING A FINGER on the screen...", kEmoticonHappy, 10, "", 11},\n\t\t\t{mainHero, "...UP and DOWN to change my VERTICAL SPEED...", kEmoticonHappy, 10, "", 11},\n\t\t\t{mainHero, "...LEFT and RIGHT to change my HORIZONTAL SPEED.", kEmoticonHappy, 10, "", 20},\n\t\t\t{mainHero, "LONGER the SLIDE, FASTER the TRAJECTORY CHANGE.", kEmoticonHappy, 15, "", 20},\n\t\t\t{mainHero, "KEEP TOUCHING the screen and the TRAJECTORY KEEPS CHANGING.", kEmoticonHappy, 15, "", 20},\n\t\t\t{mainHero, "If you STOP TOUCHING the screen the TRAJECTORY CHANGE STOPS.", kEmoticonHappy, 15, "", 20},\n\t\t\t{mainHero, "Try to master this simple controls. I\'ll give you more hints later.", kEmoticonWinking, 6, "", 8},\n\t\t\t{"repulsor", "I\'m a repulsor. I\'ll push you away!", kEmoticonDevil, 8, "", 6},\n\t\t\t{"attractor", "I\'m an attractor. You can escape my love by keeping touching the screen!", kEmoticonDevil, 12, "", 18},\n\t\t\t{mainHero, "Now I will tell you a secret: you can move much faster if you use TWO FINGERS.", kEmoticonWinking, 15, "", 17},\n\t\t\t{mainHero, "This is what I call my TURBO MODE. You can use it for a limited time, but sometimes it is the only way to get past those nasty paddles!", kEmoticonHappy, 12, "", 12},\n\t\t\t{"nastyPaddle", "WHO DID YOU CALLED NASTY!!!!!", kEmoticonAngry, 6, "", 3},\n\t\t\t{mainHero, "Ohhh please, shut up!", kEmoticonAngry, 6, "", 12},\n\t\t\t{mainHero, "The TURBO MODE TIME LEFT (in seconds) is shown by the INDICATOR at the top right of the screen, nearby the PAUSE BUTTON.", kEmoticonHappy, 12, "", 14},\n\t\t\t{mainHero, "In some levels you will find TURBO POWERUPS that will give me more turbo time.", kEmoticonHappy, 12, "", 16},\n\t\t\t{mainHero, "That\'s it. When you feel ready tap the BACK button and try to make my life less miserable!", kEmoticonWinking, 12, "", 0},\n\t\t}\n\telse\n\t\tmessages = {\n\t\t\t{mainHero, "Hi there! You are using the JOYSTICK control mode.", kEmoticonHappy, 5, "", 5},\n\t\t\t{mainHero, "This is a simple playground where you can practice my movement mechanics.", kEmoticonHappy, 7, "", 8},\n\t\t\t{mainHero, "The joystick is activated touching the screen anywhere...", kEmoticonHappy, 10, "", 11},\n\t\t\t{mainHero, "...then you can move your finger to change my trajectory.", kEmoticonHappy, 10, "", 11},\n\t\t\t{mainHero, "Try to master this simple controls. I\'ll give you more hints later.", kEmoticonWinking, 6, "", 8},\n\t\t\t{"repulsor", "I\'m a repulsor. I\'ll push you away!", kEmoticonDevil, 8, "", 6},\n\t\t\t{"attractor", "I\'m an attractor. You can escape my love by keeping touching the screen!", kEmoticonDevil, 12, "", 18},\n\t\t\t{mainHero, "If you STOP TOUCHING the screen the TRAJECTORY CHANGE STOPS.", kEmoticonHappy, 15, "", 20},\n\t\t\t{mainHero, "Now I will tell you a secret: you can move much faster touching the screen with two fingers", kEmoticonWinking, 15, "", 17},\n\t\t\t{mainHero, "This is what I call my TURBO MODE. You can use it for a limited time, but sometimes it is the only way to get past those nasty paddles!", kEmoticonHappy, 12, "", 12},\n\t\t\t{"nastyPaddle", "WHO DID YOU CALLED NASTY!!!!!", kEmoticonAngry, 6, "", 3},\n\t\t\t{mainHero, "Ohhh please, shut up!", kEmoticonAngry, 6, "", 12},\n\t\t\t{mainHero, "The TURBO MODE TIME LEFT (in seconds) is shown by the INDICATOR at the top right of the screen, nearby the PAUSE BUTTON.", kEmoticonHappy, 12, "", 14},\n\t\t\t{mainHero, "In some levels you will find TURBO POWERUPS that will give me more turbo time.", kEmoticonHappy, 12, "", 16},\n\t\t\t{mainHero, "That\'s it. When you feel ready tap the BACK button and try to make my life less miserable!", kEmoticonWinking, 12, "", 0},\n\t\t}\n\tend\n\n\tself:startMessagesScript ("trainingFieldMoveMessages", messages)\nend\n\nfunction T:onEnter ()\n\tself.lastCenter = 0\n\n\tlevel:showHUD (true)\nend\n\nfunction T:onExit ()\n\tlevel:showHUD (false)\n\tself:stopMessagesScript ("trainingFieldMoveMessages")\nend\n\nfunction T:update (dt)\n\tScreen.update (self, dt)\n\n\tself.lastCenter = self.lastCenter + dt\n\n\tlocal hsx, hsy = mainHero:speed ()\n\n\tif hsx >= -2 and hsx <= 2 and hsy >= -2 and hsy <= 2 then\n\t\tlocal hpx, hpy = mainHero:position ()\n\t\tlocal hw, hh = mainHero:size ()\n\n\t\tlocal t = level:paddleWithName ("target")\n\t\tlocal tpx, tpy = t:position ()\n\t\tlocal tw, th = t:size ()\n\n\t\tif self.lastCenter > 2 and hpx >= tpx and hpx + hw <= tpx + tw and hpy >= tpy and hpy + hh <= tpy + th then\n\t\t\tgame.hudShowTimerLabel ("Centered!", "/gong.caf")\n\t\t\tself.lastCenter = 0\n\t\t\tif not game.openFeintIsAchievementUnlocked (OFA_TRAINING_MOVE_COMPLETED) then\n\t\t\t\tgame.openFeintUnlockAchievement (OFA_TRAINING_MOVE_COMPLETED)\n\t\t\tend\n\t\tend\n\tend\n\n\tgame.screenSetNeedsScriptUpdate (self.index, true)\nend\n'
p1719
sg1582
F0.29999999999999999
sg1583
I01
sg26
F320
sS'borderSideRightColor'
p1720
S'255,255,255'
p1721
sS'borderSideLeftColor'
p1722
S'255,255,255'
p1723
sa(dp1724
g1638
F0
sg1639
F0
sg1640
F0
sg1504
I00
sg1505
S'Help'
p1725
sg1506
S'200,200,200'
p1726
sg1594
S''
sg53
F810
sg54
F447
sg1643
F0
sg1644
F0
sg1597
S''
sg61
S''
sg66
S''
sg1598
F0
sg1513
S''
sg1645
I00
sg1515
F-100
sg1516
F-100
sg1600
S''
sg1601
S''
sg79
S'help'
p1727
sg1520
S'255,255,255'
p1728
sg1522
I5
sg1604
F0
sg1605
F0
sg1606
I180
sg1607
F0.5
sg8
S''
sg1527
I00
sg1528
I01
sg1529
I5
sg21
S'0,100,0'
p1729
sg40
S'0,0,0'
p1730
sg73
(lp1731
sg1533
I00
sg51
I255
sg1534
I0
sg1535
S'200,200,200'
p1732
sg1537
F0
sg1538
F0
sg1612
I180
sg1540
I5
sg1541
I0
sg83
I0
sg1652
S'255,255,255'
p1733
sg88
S''
sg1654
I0
sg1545
I01
sg7
F100
sg1546
F100
sg1616
I180
sg50
S''
sg1548
S''
sg1549
I00
sg1655
F0
sg1656
F0
sg91
F480
sg1617
F0
sg1553
I01
sg1554
F1
sg1555
F1
sg1657
S'255,255,255'
p1734
sg1558
F0.75
sg1559
F0.75
sg1622
F0.5
sg1561
F0
sg1562
I255
sg1623
I180
sg78
I0
sg1564
S''
sg1624
F0.5
sg10
(lp1735
sg1626
F0
sg1627
F0.5
sg1569
S''
sg1570
I01
sg1571
I00
sg1660
I00
sg1573
F0
sg1574
F0
sg1629
F0
sg1630
F0
sg1631
F0
sg1578
S'For the perfectionist square'
p1736
sg1580
I5
sg60
F0
sg69
S''
sg1582
F0.29999999999999999
sg1583
I01
sg26
F320
sg1662
S'255,255,255'
p1737
sg1664
S'255,255,255'
p1738
sa(dp1739
g1638
F0
sg1639
F0
sg1640
F0
sg1504
I01
sg1505
S''
sg1506
S'200,200,200'
p1740
sg1580
I5
sg53
F1314
sg54
F445
sg1643
F0
sg1644
F0
sg1597
S''
sg1594
S''
sg61
S''
sg66
S''
sg1598
F160
sg1513
S''
sg1645
I00
sg1515
F-100
sg1516
F-100
sg1600
S''
sg1601
S''
sg79
S'helpHUD'
p1741
sg1520
S'255,255,255'
p1742
sg1522
I5
sg1604
F0
sg1605
F0
sg1606
I180
sg1607
F0.5
sg8
S''
sg1527
I00
sg1528
I01
sg1529
I5
sg21
S'0,100,0'
p1743
sg40
S'0,0,0'
p1744
sg73
(lp1745
sg51
I255
sg1534
I0
sg1535
S'200,200,200'
p1746
sg1537
F0
sg1538
F0
sg1612
I180
sg1540
I5
sg1541
I0
sg83
I0
sg1652
S'255,255,255'
p1747
sg88
S''
sg1654
I0
sg1545
I01
sg7
F100
sg1546
F100
sg1616
I180
sg50
S''
sg1548
S''
sg1549
I01
sg1655
F0
sg1656
F0
sg91
F480
sg1617
F240
sg1553
I01
sg1554
F1
sg1555
F1
sg1657
S'255,255,255'
p1748
sg1558
F0.75
sg1559
F0.75
sg1622
F0.5
sg1561
F99999
sg1562
I255
sg1623
I255
sg78
I0
sg1564
S''
sg1624
F0.5
sg10
(lp1749
sg1626
F0
sg1627
F0
sg1569
S''
sg1570
I01
sg1571
I01
sg1660
I00
sg1573
F0
sg1574
F0
sg1629
F0
sg1630
F0
sg1631
F0
sg1578
S''
sg1533
I00
sg60
F0
sg69
S'\nfunction T:onEnter ()\n\tScreen.onEnter (self)\n\n\tlevel:showHUD (true)\n\tgame.levelSetBGImageIndexTexturePositionOpacityDuration (0, "helpHUD.png", 240, 160, 255, 0)\nend\n\nfunction T:onExit ()\n\tScreen.onExit (self)\n\n\tgame.levelUnsetBGImageIndex (0)\n\tlevel:showHUD (false)\nend\n'
p1750
sg1582
F0.29999999999999999
sg1583
I01
sg26
F320
sg1662
S'255,255,255'
p1751
sg1664
S'255,255,255'
p1752
sa(dp1753
g1638
F0
sg1639
F0
sg1640
F0
sg1504
I01
sg1505
S''
sg1506
S'200,200,200'
p1754
sg1594
S''
sg53
F1313
sg54
F783
sg1643
F0
sg1644
F0
sg1597
S''
sg61
S''
sg66
S''
sg1598
F160
sg1513
S''
sg1645
I00
sg1515
F-100
sg1516
F-100
sg1600
S''
sg1601
S''
sg79
S'helpControl1'
p1755
sg1520
S'255,255,255'
p1756
sg1522
I5
sg1604
F0
sg1605
F0
sg1606
I180
sg1607
F0.5
sg8
S''
sg1527
I00
sg1528
I01
sg1529
I5
sg21
S'0,100,0'
p1757
sg40
S'0,0,0'
p1758
sg73
(lp1759
sg51
I255
sg1534
I0
sg1535
S'200,200,200'
p1760
sg1537
F0
sg1538
F0
sg1580
I5
sg1612
I180
sg1540
I5
sg1541
I0
sg83
I0
sg1652
S'255,255,255'
p1761
sg88
S''
sg1654
I0
sg1545
I01
sg7
F100
sg1546
F100
sg1616
I180
sg50
S''
sg1548
S''
sg1549
I01
sg1655
F0
sg1656
F0
sg91
F480
sg1617
F240
sg1553
I01
sg1554
F1
sg1555
F1
sg1657
S'255,255,255'
p1762
sg1558
F0.75
sg1559
F0.75
sg1622
F0.5
sg1561
F0
sg1562
I255
sg1623
I255
sg78
I0
sg1564
S''
sg1624
F0.5
sg10
(lp1763
sg1626
F0
sg1627
F0
sg1569
S''
sg1570
I01
sg1571
I01
sg1660
I00
sg1573
F0
sg1574
F0
sg1629
F0
sg1630
F0
sg1631
F0
sg1578
S''
sg1533
I00
sg60
F0
sg69
S'\nfunction T:onEnter ()\n\tScreen.onEnter (self)\n\n\tlevel:showHUD (true)\n\tgame.levelSetBGImageIndexTexturePositionOpacityDuration (0, "helpControl1.png", 240, 160, 255, 0)\nend\n\nfunction T:onExit ()\n\tScreen.onExit (self)\n\n\tgame.levelUnsetBGImageIndex (0)\n\tlevel:showHUD (false)\nend\n'
p1764
sg1582
F0.29999999999999999
sg1583
I01
sg26
F320
sg1662
S'255,255,255'
p1765
sg1664
S'255,255,255'
p1766
sa(dp1767
g1638
F0
sg1639
F0
sg1640
F0
sg1504
I01
sg1505
S''
sg1506
S'200,200,200'
p1768
sg1594
S''
sg53
F1314
sg54
F1134
sg1643
F0
sg1644
F0
sg1597
S''
sg61
S''
sg66
S''
sg1598
F160
sg1513
S''
sg1645
I00
sg1515
F-100
sg1516
F-100
sg1600
S''
sg1601
S''
sg79
S'helpControl2'
p1769
sg1520
S'255,255,255'
p1770
sg1522
I5
sg1604
F0
sg1605
F0
sg1606
I180
sg1607
F0.5
sg8
S''
sg1527
I00
sg1528
I01
sg1529
I5
sg21
S'0,100,0'
p1771
sg40
S'0,0,0'
p1772
sg73
(lp1773
sg1533
I00
sg51
I255
sg1534
I0
sg1535
S'200,200,200'
p1774
sg1537
F0
sg1538
F0
sg1612
I180
sg1540
I5
sg1541
I0
sg83
I0
sg1652
S'255,255,255'
p1775
sg88
S''
sg1654
I0
sg1545
I01
sg7
F100
sg1546
F100
sg1616
I180
sg50
S''
sg1548
S''
sg1549
I01
sg1655
F0
sg1656
F0
sg91
F480
sg1617
F240
sg1553
I01
sg1554
F1
sg1555
F1
sg1657
S'255,255,255'
p1776
sg1558
F0.75
sg1559
F0.75
sg1622
F0.5
sg1561
F0
sg1562
I255
sg1623
I255
sg78
I0
sg1564
S''
sg1624
F0.5
sg10
(lp1777
sg1626
F0
sg1627
F0
sg1569
S''
sg1570
I01
sg1571
I01
sg1660
I00
sg1573
F0
sg1574
F0
sg1629
F0
sg1630
F0
sg1631
F0
sg1578
S''
sg1580
I5
sg60
F0
sg69
S'\nfunction T:onEnter ()\n\tScreen.onEnter (self)\n\n\tlevel:showHUD (true)\n\tgame.levelSetBGImageIndexTexturePositionOpacityDuration (0, "helpControl2.png", 240, 160, 255, 0)\nend\n\nfunction T:onExit ()\n\tScreen.onExit (self)\n\n\tgame.levelUnsetBGImageIndex (0)\n\tlevel:showHUD (false)\nend\n'
p1778
sg1582
F0.29999999999999999
sg1583
I01
sg26
F320
sg1662
S'255,255,255'
p1779
sg1664
S'255,255,255'
p1780
sa(dp1781
g1638
F0
sg1639
F0
sg1640
F0
sg1504
I00
sg1505
S'Pongod'
p1782
sg1506
S'200,200,200'
p1783
sg1580
I5
sg53
F1292
sg54
F26
sg1643
F0
sg1644
F0
sg1597
S''
sg1594
S''
sg61
S''
sg66
S''
sg1598
F0
sg1513
S''
sg1645
I00
sg1515
F-100
sg1516
F-100
sg1600
S''
sg1601
S''
sg79
S'pongod'
p1784
sg1520
S'255,255,255'
p1785
sg1522
I5
sg1604
F0
sg1605
F0
sg1606
I180
sg1607
F0.5
sg8
S''
sg1527
I00
sg1528
I01
sg1529
I5
sg21
S'196,94,0'
p1786
sg40
S'0,0,0'
p1787
sg73
(lp1788
sg51
I255
sg1534
I0
sg1535
S'200,200,200'
p1789
sg1537
F0
sg1538
F0
sg1612
I180
sg1540
I5
sg1541
I0
sg83
I0
sg1652
S'255,255,255'
p1790
sg88
S''
sg1654
I0
sg1545
I01
sg7
F100
sg1546
F100
sg1616
I180
sg50
S''
sg1548
S''
sg1549
I00
sg1655
F0
sg1656
F0
sg91
F480
sg1617
F0
sg1553
I01
sg1554
F1
sg1555
F1
sg1657
S'255,255,255'
p1791
sg1558
F0.75
sg1559
F0.75
sg1622
F0.5
sg1561
F0
sg1562
I255
sg1623
I180
sg78
I0
sg1564
S''
sg1624
F0.5
sg10
(lp1792
sg1626
F0
sg1627
F0.5
sg1569
S''
sg1570
I01
sg1571
I01
sg1660
I00
sg1573
F0
sg1574
F0
sg1629
F0
sg1630
F0
sg1631
F0
sg1578
S"It's good to be a god"
p1793
sg1533
I00
sg60
F0
sg69
S'function T:onEnter ()\n\tScreen.onEnter (self)\n\n\tself:setupLabels ()\nend\n\nfunction T:setupLabels ()\n\tlocal t\n\n\tif game.getGlobal (42) > 0 then\n\t\tt = "Unlimited Lifes: On"\n\telse\n\t\tt = "Unlimited Lifes: Off"\n\tend\n\tlevel:paddleWithName ("pongodUnlimitedLifes"):setLabel (t)\n\n\tif game.getGlobal (12) > 0 then\n\t\tt = "All Levels: On"\n\telse\n\t\tt = "All Levels: Off"\n\tend\n\tlevel:paddleWithName ("pongodAllLevels"):setLabel (t)\n\n\tif game.getGlobal (9) > 0 then\n\t\tt = "Full Quest Mode: On"\n\telse\n\t\tt = "Full Quest Mode: Off"\n\tend\n\tlevel:paddleWithName ("pongodFullQuestMode"):setLabel (t)\n\n\tif game.getGlobal (10) > 0 then\n\t\tt = "Full Quest Completed: On"\n\telse\n\t\tt = "Full Quest Completed: Off"\n\tend\n\tlevel:paddleWithName ("pongodFullQuestCompleted"):setLabel (t)\nend\n'
p1794
sg1582
F0.29999999999999999
sg1583
I01
sg26
F320
sg1662
S'255,255,255'
p1795
sg1664
S'255,255,255'
p1796
sa(dp1797
g1696
F0
sg1697
F0
sg1698
F0
sg1504
I01
sg1505
S'Training Field - Jump'
p1798
sg1506
S'200,200,200'
p1799
sg1580
I5
sg53
F0
sg54
F-374
sg1701
F0
sg1702
F0
sg1597
S''
sg1594
S''
sg61
S''
sg66
S''
sg1598
F0
sg1513
S''
sg1703
I00
sg1515
F-100
sg1516
F-100
sg1600
S''
sg1601
S''
sg79
S'trainingFieldJump'
p1800
sg1520
S'255,255,255'
p1801
sg1522
I5
sg1604
F0
sg1605
F0
sg1606
I180
sg1607
F0.5
sg8
S''
sg1527
I00
sg1528
I01
sg1529
I5
sg21
S'41,109,129'
p1802
sg40
S'0,0,0'
p1803
sg73
(lp1804
sg51
I255
sg1534
I0
sg1535
S'200,200,200'
p1805
sg1537
F0
sg1538
F0
sg1612
I180
sg1540
I5
sg1541
I0
sg83
I0
sg1710
S'255,255,255'
p1806
sg88
S''
sg1712
I0
sg1545
I01
sg7
F100
sg1546
F100
sg1616
I180
sg50
S''
sg1548
S''
sg1549
I01
sg1713
F0
sg1714
F0
sg91
F480
sg1617
F0
sg1553
I01
sg1554
F2
sg1555
F2
sg1715
S'255,255,255'
p1807
sg1558
F0
sg1559
F0
sg1622
F0.5
sg1561
F0
sg1562
I255
sg1623
I180
sg78
I0
sg1564
S''
sg1624
F0.5
sg10
(lp1808
sg1626
F0
sg1627
F0.5
sg1569
S''
sg1570
I01
sg1571
I01
sg1660
I01
sg1573
F0
sg1574
F0
sg1629
F0
sg1630
F0
sg1631
F0
sg1578
S'Jump on the platforms and collect the bonuses!'
p1809
sg1533
I00
sg60
F0
sg69
S'function T:onEnter ()\n\tself.bonusCount = 0\n\tself.numBonuses = 2\n\tlevel:paddleWithName ("bonus1"):setEnabled (true)\n\tlevel:paddleWithName ("bonus2"):setEnabled (true)\n\n\tself:enableGravity (true)\n\tlevel:showHUD (true)\n\n\tlocal messages\n\tmessages = {\n\t\t{kMessageTimeout, 1},\n\t\t{mainHero, "Jumps! You better train or you\'ll get stuck!", kEmoticonWinking, 5, "", 5},\n\t\t{mainHero, "The trick is to start the jump sliding up your finger and...", kEmoticonHappy, 12, "", 13},\n\t\t{mainHero, "...keep touching the screen to apply the vertical acceleration.", kEmoticonHappy, 12, "", 13},\n\t\t{mainHero, "For higher jumps, start the slide when I\'m going up!", kEmoticonHappy, 12, "", 0},\n\t}\n\n\tself:startMessagesScript ("trainingFieldJumpMessages", messages)\nend\n\nfunction T:onExit ()\n\tself:enableGravity (false)\n\tlevel:showHUD (false)\n\tself:stopMessagesScript ("trainingFieldJumpMessages")\nend\n\nfunction T:enableGravity (b)\n\tif (b) then\n\t\tmainHero:setSpeed (0, -50)\n\t\tgame.levelSetMinSpeed (0, 0)\n\t\tgame.levelSetMaxSpeed (50, 220)\n\t\tgame.levelSetAccelerationViscosity (0.2, 0.0)\n\t\tgame.levelSetAccelerationFactor (1, 3)\n\t\tgame.levelSetAccelerationMin (-50, -100)\n\t\tgame.levelSetAccelerationMax (50, 150)\n\t\tgame.levelSetGravity (0, -9)\n\t\tgame.levelSetFriction (0.8)\t\n\n\t\tif game.inputMode () == kInputModeJoystick then\n\t\t\tif game.difficultyLevel () == kDifficultyLow then\n\t\t\t\tgame.levelSetAccelerationMin (-100, -100)\n\t\t\t\tgame.levelSetAccelerationMax (100, 170)\n\t\t\t\tgame.levelSetJoystickAccelerationFactor (0.1)\n\t\t\telse\n\t\t\t\tgame.levelSetAccelerationMax (50, 125)\n\t\t\tend\n\t\telse\n\t\t\tif game.difficultyLevel () == kDifficultyLow then\n\t\t\t\tgame.levelSetAccelerationMin (-100, -100)\n\t\t\t\tgame.levelSetAccelerationMax (100, 170)\n\t\t\t\tgame.levelSetJoystickAccelerationFactor (0.1)\n\t\t\tend\n\t\tend\n\telse\n\t\tmainHero:setSpeed (100, 50)\n\t\tgame.levelSetMinSpeed (0, 0)\n\t\tgame.levelSetMaxSpeed (200, 200)\n\t\tgame.levelSetAccelerationViscosity (0.75, 0.75)\n\t\tgame.levelSetAccelerationFactor (1, 1)\n\t\tgame.levelSetAccelerationMin (-100, -100)\n\t\tgame.levelSetAccelerationMax (100, 100)\n\t\tgame.levelSetGravity (0, 0)\n\t\tgame.levelSetFriction (0)\t\n\tend\nend\n\nfunction T:checkAchievement ()\n\tif self.bonusCount >= self.numBonuses then\n\t\tgame.hudShowTimerLabel ("Collected!", "/gong.caf")\n\t\tif not game.openFeintIsAchievementUnlocked (OFA_TRAINING_JUMP_COMPLETED) then\n\t\t\tgame.openFeintUnlockAchievement (OFA_TRAINING_JUMP_COMPLETED)\n\t\tend\n\tend\nend\n'
p1810
sg1582
F0.29999999999999999
sg1583
I01
sg26
F320
sg1720
S'255,255,255'
p1811
sg1722
S'255,255,255'
p1812
sa(dp1813
g1638
F0
sg1639
F0
sg1640
F0
sg1504
I01
sg1505
S''
sg1506
S'200,200,200'
p1814
sg1580
I5
sg53
F1311
sg54
F1481
sg1643
F0
sg1644
F0
sg1597
S''
sg1594
S''
sg61
S''
sg66
S''
sg1598
F160
sg1513
S''
sg1645
I00
sg1515
F-100
sg1516
F-100
sg1600
S''
sg1601
S''
sg79
S'helpControlJoystick1'
p1815
sg1520
S'255,255,255'
p1816
sg1522
I5
sg1604
F0
sg1605
F0
sg1606
I180
sg1607
F0.5
sg8
S''
sg1527
I00
sg1528
I01
sg1529
I5
sg21
S'0,100,0'
p1817
sg40
S'0,0,0'
p1818
sg73
(lp1819
sg51
I255
sg1534
I0
sg1535
S'200,200,200'
p1820
sg1537
F0
sg1538
F0
sg1612
I180
sg1540
I5
sg1541
I0
sg83
I0
sg1652
S'255,255,255'
p1821
sg88
S''
sg1654
I0
sg1545
I01
sg7
F100
sg1546
F100
sg1616
I180
sg50
S''
sg1548
S''
sg1549
I01
sg1655
F0
sg1656
F0
sg91
F480
sg1617
F240
sg1553
I01
sg1554
F1
sg1555
F1
sg1657
S'255,255,255'
p1822
sg1558
F0.75
sg1559
F0.75
sg1622
F0.5
sg1561
F0
sg1562
I255
sg1623
I255
sg78
I0
sg1564
S''
sg1624
F0.5
sg10
(lp1823
sg1626
F0
sg1627
F0
sg1569
S''
sg1570
I01
sg1571
I01
sg1660
I00
sg1573
F0
sg1574
F0
sg1629
F0
sg1630
F0
sg1631
F0
sg1578
S''
sg1533
I00
sg60
F0
sg69
S'\nfunction T:onEnter ()\n\tScreen.onEnter (self)\n\n\tlevel:showHUD (true)\n\tgame.levelSetBGImageIndexTexturePositionOpacityDuration (0, "helpControlJoystick.png", 240, 160, 255, 0)\nend\n\nfunction T:onExit ()\n\tScreen.onExit (self)\n\n\tgame.levelUnsetBGImageIndex (0)\n\tlevel:showHUD (false)\nend\n'
p1824
sg1582
F0.29999999999999999
sg1583
I01
sg26
F320
sg1662
S'255,255,255'
p1825
sg1664
S'255,255,255'
p1826
sasS'turboSecondsAvailable'
p1827
F999
sS'scorePerSecondLeft'
p1828
I0
sS'heroStartColor'
p1829
S'255,255,255'
p1830
sg50
S''
sS'index'
p1831
S'-1'
p1832
sg1569
S'/paddleHit1.caf'
p1833
sg1505
S'Main Menu'
p1834
sg1564
S''
sg1548
S'/paddleHit1.caf'
p1835
sS'gravityX'
p1836
F0
sS'gravityY'
p1837
F0
sg1549
I00
sg1553
I01
sg1554
F1
sg1555
F1
sg1573
F0
sg1574
F0
sS'kLevelFlagShowHUD'
p1838
I00
sS'borderSideRightColor'
p1839
S'255,255,255'
p1840
sS'borderSideTopColor'
p1841
S'255,255,255'
p1842
sg1558
F0.75
sg1559
F0.75
sS'leaderboard'
p1843
S''
sg1515
F-100
sS'leaderboardFree'
p1844
S''
sg1546
F100
sS'heroStartPositionY'
p1845
F50
sg1578
S'Be2 Main Menu'
p1846
sS'minimumScore'
p1847
I0
sg1534
I0
sg1537
F200
sg1538
F200
sg66
S''
sS'heroHeight'
p1848
F10
sS'turboFactor'
p1849
F3
sg69
S'function T:setup ()\n\tLevel.setup (self)\n\n\tlocal music = "music.mp3"\n\tif  game.isFullQuestCompleted () then\n\t\tmusic = "/gameEnd2.mp3"\n\tend\n\n\tgame.audioStartBackgroundMusic (music)\nend\n\nfunction T:buyAllLevels ()\n\tgame.buyAllLevels ()\nend\n'
p1850
sg1561
F0
sg1513
S'/paddleHit1.caf'
p1851
sS'heroWidth'
p1852
F10
sS'explorationPoints'
p1853
I0
sg1516
F-100
sg78
I0
sg1582
F0.29999999999999999
sg79
S'mainMenu'
p1854
sg1541
I0
sS'nextLevelName'
p1855
S''
sS'heroStartPositionX'
p1856
F50
sS'heroStartLightEnabled'
p1857
I00
sS'heroStartAccelerationY'
p1858
F0
sS'kLevelFlagScriptUpdate'
p1859
I01
sS'borderSideBottomColor'
p1860
S'255,255,255'
p1861
sS'kLevelFlagLevelUpdate'
p1862
I01
sg88
S''
sS'screenShowDuration'
p1863
F0.20000000000000001
sS'borderSideLeftColor'
p1864
S'255,255,255'
p1865
sS'firstScreen'
p1866
S'mainMenu'
p1867
s.